
./asm/jit.bin:     file format binary


Disassembly of section .data:

0000000000000000 <.data>:
       0:	f3 0f 1e fa          	endbr64 
       4:	55                   	push   rbp
       5:	48 89 e5             	mov    rbp,rsp
       8:	53                   	push   rbx
       9:	41 54                	push   r12
       b:	41 55                	push   r13
       d:	41 56                	push   r14
       f:	41 57                	push   r15
      11:	57                   	push   rdi
      12:	56                   	push   rsi
      13:	49 89 fe             	mov    r14,rdi
      16:	49 89 f7             	mov    r15,rsi
      19:	49 8b 5e 28          	mov    rbx,QWORD PTR [r14+0x28]
      1d:	4d 8b 5e 30          	mov    r11,QWORD PTR [r14+0x30]
      21:	4d 8b 56 38          	mov    r10,QWORD PTR [r14+0x38]
      25:	4d 8b 4e 40          	mov    r9,QWORD PTR [r14+0x40]
      29:	4d 8b 46 48          	mov    r8,QWORD PTR [r14+0x48]
      2d:	49 8b 46 50          	mov    rax,QWORD PTR [r14+0x50]
      31:	49 8b 4e 58          	mov    rcx,QWORD PTR [r14+0x58]
      35:	49 8b 56 60          	mov    rdx,QWORD PTR [r14+0x60]
      39:	49 8b 76 68          	mov    rsi,QWORD PTR [r14+0x68]
      3d:	49 8b 7e 70          	mov    rdi,QWORD PTR [r14+0x70]
      41:	41 ff 76 20          	push   QWORD PTR [r14+0x20]
      45:	41 ff b6 98 00 00 00 	push   QWORD PTR [r14+0x98]
      4c:	41 ff 36             	push   QWORD PTR [r14]
      4f:	41 ff 76 08          	push   QWORD PTR [r14+0x8]
      53:	41 ff 76 10          	push   QWORD PTR [r14+0x10]
      57:	41 ff 76 18          	push   QWORD PTR [r14+0x18]
      5b:	41 ff 76 30          	push   QWORD PTR [r14+0x30]
      5f:	41 ff 77 08          	push   QWORD PTR [r15+0x8]
      63:	41 ff 37             	push   QWORD PTR [r15]
      66:	48 83 ec 18          	sub    rsp,0x18
      6a:	4c 8b 6d b8          	mov    r13,QWORD PTR [rbp-0x48]
      6e:	4c 8b 65 c0          	mov    r12,QWORD PTR [rbp-0x40]
      72:	49 c7 c3 00 00 00 00 	mov    r11,0x0
      79:	e9 bb 84 00 00       	jmp    0x8539
      7e:	49 be 80 63 55 55 55 	movabs r14,0x555555556380
      85:	55 00 00 
      88:	49 ff c3             	inc    r11
      8b:	49 f7 c3 00 00 00 01 	test   r11,0x1000000
      92:	0f 85 ad 8d 00 00    	jne    0x8e45
      98:	90                   	nop
      99:	49 bf 8b 63 55 55 55 	movabs r15,0x55555555638b
      a0:	55 00 00 
      a3:	4d 8b b7 0d fb 01 00 	mov    r14,QWORD PTR [r15+0x1fb0d]
      aa:	e9 a1 87 00 00       	jmp    0x8850
      af:	49 be b0 63 55 55 55 	movabs r14,0x5555555563b0
      b6:	55 00 00 
      b9:	49 ff c3             	inc    r11
      bc:	49 f7 c3 00 00 00 01 	test   r11,0x1000000
      c3:	0f 85 7c 8d 00 00    	jne    0x8e45
      c9:	90                   	nop
      ca:	49 bf bb 63 55 55 55 	movabs r15,0x5555555563bb
      d1:	55 00 00 
      d4:	4d 8b b7 f5 fa 01 00 	mov    r14,QWORD PTR [r15+0x1faf5]
      db:	e9 b4 87 00 00       	jmp    0x8894
      e0:	49 be f0 63 55 55 55 	movabs r14,0x5555555563f0
      e7:	55 00 00 
      ea:	49 ff c3             	inc    r11
      ed:	49 f7 c3 00 00 00 01 	test   r11,0x1000000
      f4:	0f 85 4b 8d 00 00    	jne    0x8e45
      fa:	90                   	nop
      fb:	49 bf fb 63 55 55 55 	movabs r15,0x5555555563fb
     102:	55 00 00 
     105:	4d 8b b7 d5 fa 01 00 	mov    r14,QWORD PTR [r15+0x1fad5]
     10c:	e9 a5 87 00 00       	jmp    0x88b6
     111:	49 be b0 64 55 55 55 	movabs r14,0x5555555564b0
     118:	55 00 00 
     11b:	49 ff c3             	inc    r11
     11e:	49 f7 c3 00 00 00 01 	test   r11,0x1000000
     125:	0f 85 1a 8d 00 00    	jne    0x8e45
     12b:	90                   	nop
     12c:	49 bf bb 64 55 55 55 	movabs r15,0x5555555564bb
     133:	55 00 00 
     136:	4d 8b b7 75 fa 01 00 	mov    r14,QWORD PTR [r15+0x1fa75]
     13d:	e9 30 87 00 00       	jmp    0x8872
     142:	49 be b1 70 55 55 55 	movabs r14,0x5555555570b1
     149:	55 00 00 
     14c:	49 ff c3             	inc    r11
     14f:	49 f7 c3 00 00 00 01 	test   r11,0x1000000
     156:	0f 85 e9 8c 00 00    	jne    0x8e45
     15c:	48 98                	cdqe   
     15e:	49 89 84 24 60 ff ff 	mov    QWORD PTR [r12-0xa0],rax
     165:	ff 
     166:	49 83 bc 24 60 ff ff 	cmp    QWORD PTR [r12-0xa0],0x0
     16d:	ff 00 
     16f:	74 44                	je     0x1b5
     171:	49 be cb 70 55 55 55 	movabs r14,0x5555555570cb
     178:	55 00 00 
     17b:	49 8d be 45 6f 01 00 	lea    rdi,[r14+0x16f45]
     182:	49 be d0 70 55 55 55 	movabs r14,0x5555555570d0
     189:	55 00 00 
     18c:	4d 8d 6d f8          	lea    r13,[r13-0x8]
     190:	4d 89 75 00          	mov    QWORD PTR [r13+0x0],r14
     194:	e9 2d 8a 00 00       	jmp    0x8bc6
     199:	bf ff ff ff ff       	mov    edi,0xffffffff
     19e:	49 be da 70 55 55 55 	movabs r14,0x5555555570da
     1a5:	55 00 00 
     1a8:	4d 8d 6d f8          	lea    r13,[r13-0x8]
     1ac:	4d 89 75 00          	mov    QWORD PTR [r13+0x0],r14
     1b0:	e9 e1 8a 00 00       	jmp    0x8c96
     1b5:	49 be da 70 55 55 55 	movabs r14,0x5555555570da
     1bc:	55 00 00 
     1bf:	49 ff c3             	inc    r11
     1c2:	49 f7 c3 00 00 00 01 	test   r11,0x1000000
     1c9:	0f 85 76 8c 00 00    	jne    0x8e45
     1cf:	49 be e1 70 55 55 55 	movabs r14,0x5555555570e1
     1d6:	55 00 00 
     1d9:	49 8b 86 57 20 04 00 	mov    rax,QWORD PTR [r14+0x42057]
     1e0:	48 8b 80 d8 08 20 00 	mov    rax,QWORD PTR [rax+0x2008d8]
     1e7:	49 89 84 24 68 ff ff 	mov    QWORD PTR [r12-0x98],rax
     1ee:	ff 
     1ef:	49 be f6 70 55 55 55 	movabs r14,0x5555555570f6
     1f6:	55 00 00 
     1f9:	49 8b 86 42 20 04 00 	mov    rax,QWORD PTR [r14+0x42042]
     200:	48 8b 90 d0 08 20 00 	mov    rdx,QWORD PTR [rax+0x2008d0]
     207:	48 83 c2 01          	add    rdx,0x1
     20b:	48 89 90 d0 08 20 00 	mov    QWORD PTR [rax+0x2008d0],rdx
     212:	48 8b 80 d0 08 20 00 	mov    rax,QWORD PTR [rax+0x2008d0]
     219:	49 be 16 71 55 55 55 	movabs r14,0x555555557116
     220:	55 00 00 
     223:	49 8b 96 9a 41 04 00 	mov    rdx,QWORD PTR [r14+0x4419a]
     22a:	48 39 d0             	cmp    rax,rdx
     22d:	0f 84 63 01 00 00    	je     0x396
     233:	49 8d 84 24 48 ff ff 	lea    rax,[r12-0xb8]
     23a:	ff 
     23b:	48 89 c6             	mov    rsi,rax
     23e:	bf 01 00 00 00       	mov    edi,0x1
     243:	49 be 2f 71 55 55 55 	movabs r14,0x55555555712f
     24a:	55 00 00 
     24d:	4d 8d 6d f8          	lea    r13,[r13-0x8]
     251:	4d 89 75 00          	mov    QWORD PTR [r13+0x0],r14
     255:	e9 86 fe ff ff       	jmp    0xe0
     25a:	49 be 2f 71 55 55 55 	movabs r14,0x55555555712f
     261:	55 00 00 
     264:	49 ff c3             	inc    r11
     267:	49 f7 c3 00 00 00 01 	test   r11,0x1000000
     26e:	0f 85 d1 8b 00 00    	jne    0x8e45
     274:	eb 7b                	jmp    0x2f1
     276:	49 be 38 71 55 55 55 	movabs r14,0x555555557138
     27d:	55 00 00 
     280:	49 8b 86 00 20 04 00 	mov    rax,QWORD PTR [r14+0x42000]
     287:	48 8d 90 78 08 20 00 	lea    rdx,[rax+0x200878]
     28e:	49 be 46 71 55 55 55 	movabs r14,0x555555557146
     295:	55 00 00 
     298:	49 8b 86 f2 1f 04 00 	mov    rax,QWORD PTR [r14+0x41ff2]
     29f:	48 05 a0 08 20 00    	add    rax,0x2008a0
     2a5:	48 89 d6             	mov    rsi,rdx
     2a8:	48 89 c7             	mov    rdi,rax
     2ab:	49 be 57 71 55 55 55 	movabs r14,0x555555557157
     2b2:	55 00 00 
     2b5:	4d 8d 6d f8          	lea    r13,[r13-0x8]
     2b9:	4d 89 75 00          	mov    QWORD PTR [r13+0x0],r14
     2bd:	e9 ed fd ff ff       	jmp    0xaf
     2c2:	49 be 57 71 55 55 55 	movabs r14,0x555555557157
     2c9:	55 00 00 
     2cc:	49 ff c3             	inc    r11
     2cf:	49 f7 c3 00 00 00 01 	test   r11,0x1000000
     2d6:	0f 85 69 8b 00 00    	jne    0x8e45
     2dc:	48 98                	cdqe   
     2de:	49 89 84 24 60 ff ff 	mov    QWORD PTR [r12-0xa0],rax
     2e5:	ff 
     2e6:	49 83 bc 24 60 ff ff 	cmp    QWORD PTR [r12-0xa0],0x0
     2ed:	ff 00 
     2ef:	75 5c                	jne    0x34d
     2f1:	49 be 6a 71 55 55 55 	movabs r14,0x55555555716a
     2f8:	55 00 00 
     2fb:	49 ff c3             	inc    r11
     2fe:	49 f7 c3 00 00 00 01 	test   r11,0x1000000
     305:	0f 85 3a 8b 00 00    	jne    0x8e45
     30b:	49 be 71 71 55 55 55 	movabs r14,0x555555557171
     312:	55 00 00 
     315:	49 8b 86 c7 1f 04 00 	mov    rax,QWORD PTR [r14+0x41fc7]
     31c:	48 8b 80 d8 08 20 00 	mov    rax,QWORD PTR [rax+0x2008d8]
     323:	49 39 84 24 68 ff ff 	cmp    QWORD PTR [r12-0x98],rax
     32a:	ff 
     32b:	0f 84 45 ff ff ff    	je     0x276
     331:	49 be 81 71 55 55 55 	movabs r14,0x555555557181
     338:	55 00 00 
     33b:	49 ff c3             	inc    r11
     33e:	49 f7 c3 00 00 00 01 	test   r11,0x1000000
     345:	0f 85 fa 8a 00 00    	jne    0x8e45
     34b:	eb 01                	jmp    0x34e
     34d:	90                   	nop
     34e:	41 8b 84 24 48 ff ff 	mov    eax,DWORD PTR [r12-0xb8]
     355:	ff 
     356:	49 8d 54 24 e0       	lea    rdx,[r12-0x20]
     35b:	48 89 d6             	mov    rsi,rdx
     35e:	89 c7                	mov    edi,eax
     360:	49 be 98 71 55 55 55 	movabs r14,0x555555557198
     367:	55 00 00 
     36a:	4d 8d 6d f8          	lea    r13,[r13-0x8]
     36e:	4d 89 75 00          	mov    QWORD PTR [r13+0x0],r14
     372:	e9 69 fd ff ff       	jmp    0xe0
     377:	49 be 98 71 55 55 55 	movabs r14,0x555555557198
     37e:	55 00 00 
     381:	49 ff c3             	inc    r11
     384:	49 f7 c3 00 00 00 01 	test   r11,0x1000000
     38b:	0f 85 b4 8a 00 00    	jne    0x8e45
     391:	e9 90 00 00 00       	jmp    0x426
     396:	49 be a1 71 55 55 55 	movabs r14,0x5555555571a1
     39d:	55 00 00 
     3a0:	49 8b 86 97 1f 04 00 	mov    rax,QWORD PTR [r14+0x41f97]
     3a7:	48 8b 80 d8 08 20 00 	mov    rax,QWORD PTR [rax+0x2008d8]
     3ae:	48 85 c0             	test   rax,rax
     3b1:	0f 94 c2             	sete   dl
     3b4:	49 be b5 71 55 55 55 	movabs r14,0x5555555571b5
     3bb:	55 00 00 
     3be:	49 8b 86 83 1f 04 00 	mov    rax,QWORD PTR [r14+0x41f83]
     3c5:	0f b6 d2             	movzx  edx,dl
     3c8:	48 89 90 d8 08 20 00 	mov    QWORD PTR [rax+0x2008d8],rdx
     3cf:	49 be c6 71 55 55 55 	movabs r14,0x5555555571c6
     3d6:	55 00 00 
     3d9:	49 8b 86 72 1f 04 00 	mov    rax,QWORD PTR [r14+0x41f72]
     3e0:	48 c7 80 d0 08 20 00 	mov    QWORD PTR [rax+0x2008d0],0x0
     3e7:	00 00 00 00 
     3eb:	49 be d8 71 55 55 55 	movabs r14,0x5555555571d8
     3f2:	55 00 00 
     3f5:	49 8b 86 60 1f 04 00 	mov    rax,QWORD PTR [r14+0x41f60]
     3fc:	48 05 a0 08 20 00    	add    rax,0x2008a0
     402:	48 89 c7             	mov    rdi,rax
     405:	49 be e6 71 55 55 55 	movabs r14,0x5555555571e6
     40c:	55 00 00 
     40f:	4d 8d 6d f8          	lea    r13,[r13-0x8]
     413:	4d 89 75 00          	mov    QWORD PTR [r13+0x0],r14
     417:	e9 62 fc ff ff       	jmp    0x7e
     41c:	48 98                	cdqe   
     41e:	49 89 84 24 60 ff ff 	mov    QWORD PTR [r12-0xa0],rax
     425:	ff 
     426:	49 be f6 71 55 55 55 	movabs r14,0x5555555571f6
     42d:	55 00 00 
     430:	49 8b 86 42 1f 04 00 	mov    rax,QWORD PTR [r14+0x41f42]
     437:	48 05 78 08 20 00    	add    rax,0x200878
     43d:	48 89 c7             	mov    rdi,rax
     440:	49 be 04 72 55 55 55 	movabs r14,0x555555557204
     447:	55 00 00 
     44a:	4d 8d 6d f8          	lea    r13,[r13-0x8]
     44e:	4d 89 75 00          	mov    QWORD PTR [r13+0x0],r14
     452:	e9 ba fc ff ff       	jmp    0x111
     457:	49 8d 44 24 e0       	lea    rax,[r12-0x20]
     45c:	be 00 00 00 00       	mov    esi,0x0
     461:	48 89 c7             	mov    rdi,rax
     464:	49 be 15 72 55 55 55 	movabs r14,0x555555557215
     46b:	55 00 00 
     46e:	4d 8d 6d f8          	lea    r13,[r13-0x8]
     472:	4d 89 75 00          	mov    QWORD PTR [r13+0x0],r14
     476:	e9 35 88 00 00       	jmp    0x8cb0
     47b:	49 8b 54 24 e8       	mov    rdx,QWORD PTR [r12-0x18]
     480:	49 8b 44 24 e0       	mov    rax,QWORD PTR [r12-0x20]
     485:	48 69 c0 40 42 0f 00 	imul   rax,rax,0xf4240
     48c:	48 01 d0             	add    rax,rdx
     48f:	49 89 84 24 70 ff ff 	mov    QWORD PTR [r12-0x90],rax
     496:	ff 
     497:	49 8b 84 24 38 ff ff 	mov    rax,QWORD PTR [r12-0xc8]
     49e:	ff 
     49f:	48 89 c7             	mov    rdi,rax
     4a2:	49 be 3d 72 55 55 55 	movabs r14,0x55555555723d
     4a9:	55 00 00 
     4ac:	4d 8d 6d f8          	lea    r13,[r13-0x8]
     4b0:	4d 89 75 00          	mov    QWORD PTR [r13+0x0],r14
     4b4:	e9 11 88 00 00       	jmp    0x8cca
     4b9:	49 be 44 72 55 55 55 	movabs r14,0x555555557244
     4c0:	55 00 00 
     4c3:	49 8b 86 f4 1e 04 00 	mov    rax,QWORD PTR [r14+0x41ef4]
     4ca:	48 05 08 09 20 00    	add    rax,0x200908
     4d0:	48 89 c7             	mov    rdi,rax
     4d3:	49 be 52 72 55 55 55 	movabs r14,0x555555557252
     4da:	55 00 00 
     4dd:	4d 8d 6d f8          	lea    r13,[r13-0x8]
     4e1:	4d 89 75 00          	mov    QWORD PTR [r13+0x0],r14
     4e5:	e9 29 89 00 00       	jmp    0x8e13
     4ea:	49 be 59 72 55 55 55 	movabs r14,0x555555557259
     4f1:	55 00 00 
     4f4:	49 8b 86 df 1e 04 00 	mov    rax,QWORD PTR [r14+0x41edf]
     4fb:	48 8b 50 08          	mov    rdx,QWORD PTR [rax+0x8]
     4ff:	48 83 ea 01          	sub    rdx,0x1
     503:	48 89 50 08          	mov    QWORD PTR [rax+0x8],rdx
     507:	49 be 6c 72 55 55 55 	movabs r14,0x55555555726c
     50e:	55 00 00 
     511:	49 8b 86 cc 1e 04 00 	mov    rax,QWORD PTR [r14+0x41ecc]
     518:	48 05 08 09 20 00    	add    rax,0x200908
     51e:	48 89 c7             	mov    rdi,rax
     521:	49 be 7a 72 55 55 55 	movabs r14,0x55555555727a
     528:	55 00 00 
     52b:	4d 8d 6d f8          	lea    r13,[r13-0x8]
     52f:	4d 89 75 00          	mov    QWORD PTR [r13+0x0],r14
     533:	e9 d9 fb ff ff       	jmp    0x111
     538:	90                   	nop
     539:	49 be 7b 72 55 55 55 	movabs r14,0x55555555727b
     540:	55 00 00 
     543:	49 ff c3             	inc    r11
     546:	49 f7 c3 00 00 00 01 	test   r11,0x1000000
     54d:	0f 85 f2 88 00 00    	jne    0x8e45
     553:	49 be 82 72 55 55 55 	movabs r14,0x555555557282
     55a:	55 00 00 
     55d:	49 8b 86 b6 1e 04 00 	mov    rax,QWORD PTR [r14+0x41eb6]
     564:	48 8b 40 08          	mov    rax,QWORD PTR [rax+0x8]
     568:	48 85 c0             	test   rax,rax
     56b:	75 cc                	jne    0x539
     56d:	49 8b 84 24 38 ff ff 	mov    rax,QWORD PTR [r12-0xc8]
     574:	ff 
     575:	48 89 c7             	mov    rdi,rax
     578:	49 be 9a 72 55 55 55 	movabs r14,0x55555555729a
     57f:	55 00 00 
     582:	4d 8d 6d f8          	lea    r13,[r13-0x8]
     586:	4d 89 75 00          	mov    QWORD PTR [r13+0x0],r14
     58a:	e9 6d 88 00 00       	jmp    0x8dfc
     58f:	49 8d 44 24 e0       	lea    rax,[r12-0x20]
     594:	be 00 00 00 00       	mov    esi,0x0
     599:	48 89 c7             	mov    rdi,rax
     59c:	49 be ab 72 55 55 55 	movabs r14,0x5555555572ab
     5a3:	55 00 00 
     5a6:	4d 8d 6d f8          	lea    r13,[r13-0x8]
     5aa:	4d 89 75 00          	mov    QWORD PTR [r13+0x0],r14
     5ae:	e9 fd 86 00 00       	jmp    0x8cb0
     5b3:	49 8b 54 24 e8       	mov    rdx,QWORD PTR [r12-0x18]
     5b8:	49 8b 44 24 e0       	mov    rax,QWORD PTR [r12-0x20]
     5bd:	48 69 c0 40 42 0f 00 	imul   rax,rax,0xf4240
     5c4:	48 01 d0             	add    rax,rdx
     5c7:	49 89 84 24 78 ff ff 	mov    QWORD PTR [r12-0x88],rax
     5ce:	ff 
     5cf:	49 be cb 72 55 55 55 	movabs r14,0x5555555572cb
     5d6:	55 00 00 
     5d9:	49 8b 86 6d 1e 04 00 	mov    rax,QWORD PTR [r14+0x41e6d]
     5e0:	48 05 78 08 20 00    	add    rax,0x200878
     5e6:	48 89 c7             	mov    rdi,rax
     5e9:	49 be d9 72 55 55 55 	movabs r14,0x5555555572d9
     5f0:	55 00 00 
     5f3:	4d 8d 6d f8          	lea    r13,[r13-0x8]
     5f7:	4d 89 75 00          	mov    QWORD PTR [r13+0x0],r14
     5fb:	e9 13 88 00 00       	jmp    0x8e13
     600:	49 be d9 72 55 55 55 	movabs r14,0x5555555572d9
     607:	55 00 00 
     60a:	49 ff c3             	inc    r11
     60d:	49 f7 c3 00 00 00 01 	test   r11,0x1000000
     614:	0f 85 2b 88 00 00    	jne    0x8e45
     61a:	48 98                	cdqe   
     61c:	49 89 44 24 80       	mov    QWORD PTR [r12-0x80],rax
     621:	49 83 7c 24 80 00    	cmp    QWORD PTR [r12-0x80],0x0
     627:	74 44                	je     0x66d
     629:	49 be ed 72 55 55 55 	movabs r14,0x5555555572ed
     630:	55 00 00 
     633:	49 8d be 23 6d 01 00 	lea    rdi,[r14+0x16d23]
     63a:	49 be f2 72 55 55 55 	movabs r14,0x5555555572f2
     641:	55 00 00 
     644:	4d 8d 6d f8          	lea    r13,[r13-0x8]
     648:	4d 89 75 00          	mov    QWORD PTR [r13+0x0],r14
     64c:	e9 75 85 00 00       	jmp    0x8bc6
     651:	bf ff ff ff ff       	mov    edi,0xffffffff
     656:	49 be fc 72 55 55 55 	movabs r14,0x5555555572fc
     65d:	55 00 00 
     660:	4d 8d 6d f8          	lea    r13,[r13-0x8]
     664:	4d 89 75 00          	mov    QWORD PTR [r13+0x0],r14
     668:	e9 29 86 00 00       	jmp    0x8c96
     66d:	49 be fc 72 55 55 55 	movabs r14,0x5555555572fc
     674:	55 00 00 
     677:	49 ff c3             	inc    r11
     67a:	49 f7 c3 00 00 00 01 	test   r11,0x1000000
     681:	0f 85 be 87 00 00    	jne    0x8e45
     687:	49 be 03 73 55 55 55 	movabs r14,0x555555557303
     68e:	55 00 00 
     691:	49 8b 86 35 1e 04 00 	mov    rax,QWORD PTR [r14+0x41e35]
     698:	48 8b 80 d8 08 20 00 	mov    rax,QWORD PTR [rax+0x2008d8]
     69f:	49 89 44 24 88       	mov    QWORD PTR [r12-0x78],rax
     6a4:	49 be 15 73 55 55 55 	movabs r14,0x555555557315
     6ab:	55 00 00 
     6ae:	49 8b 86 23 1e 04 00 	mov    rax,QWORD PTR [r14+0x41e23]
     6b5:	48 8b 90 d0 08 20 00 	mov    rdx,QWORD PTR [rax+0x2008d0]
     6bc:	48 83 c2 01          	add    rdx,0x1
     6c0:	48 89 90 d0 08 20 00 	mov    QWORD PTR [rax+0x2008d0],rdx
     6c7:	48 8b 80 d0 08 20 00 	mov    rax,QWORD PTR [rax+0x2008d0]
     6ce:	49 be 35 73 55 55 55 	movabs r14,0x555555557335
     6d5:	55 00 00 
     6d8:	49 8b 96 7b 3f 04 00 	mov    rdx,QWORD PTR [r14+0x43f7b]
     6df:	48 39 d0             	cmp    rax,rdx
     6e2:	0f 84 5a 01 00 00    	je     0x842
     6e8:	49 8d 84 24 48 ff ff 	lea    rax,[r12-0xb8]
     6ef:	ff 
     6f0:	48 89 c6             	mov    rsi,rax
     6f3:	bf 01 00 00 00       	mov    edi,0x1
     6f8:	49 be 4e 73 55 55 55 	movabs r14,0x55555555734e
     6ff:	55 00 00 
     702:	4d 8d 6d f8          	lea    r13,[r13-0x8]
     706:	4d 89 75 00          	mov    QWORD PTR [r13+0x0],r14
     70a:	e9 d1 f9 ff ff       	jmp    0xe0
     70f:	49 be 4e 73 55 55 55 	movabs r14,0x55555555734e
     716:	55 00 00 
     719:	49 ff c3             	inc    r11
     71c:	49 f7 c3 00 00 00 01 	test   r11,0x1000000
     723:	0f 85 1c 87 00 00    	jne    0x8e45
     729:	eb 75                	jmp    0x7a0
     72b:	49 be 57 73 55 55 55 	movabs r14,0x555555557357
     732:	55 00 00 
     735:	49 8b 86 e1 1d 04 00 	mov    rax,QWORD PTR [r14+0x41de1]
     73c:	48 8d 90 78 08 20 00 	lea    rdx,[rax+0x200878]
     743:	49 be 65 73 55 55 55 	movabs r14,0x555555557365
     74a:	55 00 00 
     74d:	49 8b 86 d3 1d 04 00 	mov    rax,QWORD PTR [r14+0x41dd3]
     754:	48 05 a0 08 20 00    	add    rax,0x2008a0
     75a:	48 89 d6             	mov    rsi,rdx
     75d:	48 89 c7             	mov    rdi,rax
     760:	49 be 76 73 55 55 55 	movabs r14,0x555555557376
     767:	55 00 00 
     76a:	4d 8d 6d f8          	lea    r13,[r13-0x8]
     76e:	4d 89 75 00          	mov    QWORD PTR [r13+0x0],r14
     772:	e9 38 f9 ff ff       	jmp    0xaf
     777:	49 be 76 73 55 55 55 	movabs r14,0x555555557376
     77e:	55 00 00 
     781:	49 ff c3             	inc    r11
     784:	49 f7 c3 00 00 00 01 	test   r11,0x1000000
     78b:	0f 85 b4 86 00 00    	jne    0x8e45
     791:	48 98                	cdqe   
     793:	49 89 44 24 80       	mov    QWORD PTR [r12-0x80],rax
     798:	49 83 7c 24 80 00    	cmp    QWORD PTR [r12-0x80],0x0
     79e:	75 59                	jne    0x7f9
     7a0:	49 be 83 73 55 55 55 	movabs r14,0x555555557383
     7a7:	55 00 00 
     7aa:	49 ff c3             	inc    r11
     7ad:	49 f7 c3 00 00 00 01 	test   r11,0x1000000
     7b4:	0f 85 8b 86 00 00    	jne    0x8e45
     7ba:	49 be 8a 73 55 55 55 	movabs r14,0x55555555738a
     7c1:	55 00 00 
     7c4:	49 8b 86 ae 1d 04 00 	mov    rax,QWORD PTR [r14+0x41dae]
     7cb:	48 8b 80 d8 08 20 00 	mov    rax,QWORD PTR [rax+0x2008d8]
     7d2:	49 39 44 24 88       	cmp    QWORD PTR [r12-0x78],rax
     7d7:	0f 84 4e ff ff ff    	je     0x72b
     7dd:	49 be 97 73 55 55 55 	movabs r14,0x555555557397
     7e4:	55 00 00 
     7e7:	49 ff c3             	inc    r11
     7ea:	49 f7 c3 00 00 00 01 	test   r11,0x1000000
     7f1:	0f 85 4e 86 00 00    	jne    0x8e45
     7f7:	eb 01                	jmp    0x7fa
     7f9:	90                   	nop
     7fa:	41 8b 84 24 48 ff ff 	mov    eax,DWORD PTR [r12-0xb8]
     801:	ff 
     802:	49 8d 54 24 e0       	lea    rdx,[r12-0x20]
     807:	48 89 d6             	mov    rsi,rdx
     80a:	89 c7                	mov    edi,eax
     80c:	49 be ae 73 55 55 55 	movabs r14,0x5555555573ae
     813:	55 00 00 
     816:	4d 8d 6d f8          	lea    r13,[r13-0x8]
     81a:	4d 89 75 00          	mov    QWORD PTR [r13+0x0],r14
     81e:	e9 bd f8 ff ff       	jmp    0xe0
     823:	49 be ae 73 55 55 55 	movabs r14,0x5555555573ae
     82a:	55 00 00 
     82d:	49 ff c3             	inc    r11
     830:	49 f7 c3 00 00 00 01 	test   r11,0x1000000
     837:	0f 85 08 86 00 00    	jne    0x8e45
     83d:	e9 8d 00 00 00       	jmp    0x8cf
     842:	49 be b7 73 55 55 55 	movabs r14,0x5555555573b7
     849:	55 00 00 
     84c:	49 8b 86 81 1d 04 00 	mov    rax,QWORD PTR [r14+0x41d81]
     853:	48 8b 80 d8 08 20 00 	mov    rax,QWORD PTR [rax+0x2008d8]
     85a:	48 85 c0             	test   rax,rax
     85d:	0f 94 c2             	sete   dl
     860:	49 be cb 73 55 55 55 	movabs r14,0x5555555573cb
     867:	55 00 00 
     86a:	49 8b 86 6d 1d 04 00 	mov    rax,QWORD PTR [r14+0x41d6d]
     871:	0f b6 d2             	movzx  edx,dl
     874:	48 89 90 d8 08 20 00 	mov    QWORD PTR [rax+0x2008d8],rdx
     87b:	49 be dc 73 55 55 55 	movabs r14,0x5555555573dc
     882:	55 00 00 
     885:	49 8b 86 5c 1d 04 00 	mov    rax,QWORD PTR [r14+0x41d5c]
     88c:	48 c7 80 d0 08 20 00 	mov    QWORD PTR [rax+0x2008d0],0x0
     893:	00 00 00 00 
     897:	49 be ee 73 55 55 55 	movabs r14,0x5555555573ee
     89e:	55 00 00 
     8a1:	49 8b 86 4a 1d 04 00 	mov    rax,QWORD PTR [r14+0x41d4a]
     8a8:	48 05 a0 08 20 00    	add    rax,0x2008a0
     8ae:	48 89 c7             	mov    rdi,rax
     8b1:	49 be fc 73 55 55 55 	movabs r14,0x5555555573fc
     8b8:	55 00 00 
     8bb:	4d 8d 6d f8          	lea    r13,[r13-0x8]
     8bf:	4d 89 75 00          	mov    QWORD PTR [r13+0x0],r14
     8c3:	e9 b6 f7 ff ff       	jmp    0x7e
     8c8:	48 98                	cdqe   
     8ca:	49 89 44 24 80       	mov    QWORD PTR [r12-0x80],rax
     8cf:	49 be 09 74 55 55 55 	movabs r14,0x555555557409
     8d6:	55 00 00 
     8d9:	49 8b 86 2f 1d 04 00 	mov    rax,QWORD PTR [r14+0x41d2f]
     8e0:	48 05 78 08 20 00    	add    rax,0x200878
     8e6:	48 89 c7             	mov    rdi,rax
     8e9:	49 be 17 74 55 55 55 	movabs r14,0x555555557417
     8f0:	55 00 00 
     8f3:	4d 8d 6d f8          	lea    r13,[r13-0x8]
     8f7:	4d 89 75 00          	mov    QWORD PTR [r13+0x0],r14
     8fb:	e9 11 f8 ff ff       	jmp    0x111
     900:	49 8d 94 24 48 ff ff 	lea    rdx,[r12-0xb8]
     907:	ff 
     908:	49 8b 8c 24 70 ff ff 	mov    rcx,QWORD PTR [r12-0x90]
     90f:	ff 
     910:	49 8b 84 24 78 ff ff 	mov    rax,QWORD PTR [r12-0x88]
     917:	ff 
     918:	48 89 ce             	mov    rsi,rcx
     91b:	48 89 c7             	mov    rdi,rax
     91e:	49 be 37 74 55 55 55 	movabs r14,0x555555557437
     925:	55 00 00 
     928:	4d 8d 6d f8          	lea    r13,[r13-0x8]
     92c:	4d 89 75 00          	mov    QWORD PTR [r13+0x0],r14
     930:	e9 c9 83 00 00       	jmp    0x8cfe
     935:	49 c7 44 24 e0 00 00 	mov    QWORD PTR [r12-0x20],0x0
     93c:	00 00 
     93e:	49 be 46 74 55 55 55 	movabs r14,0x555555557446
     945:	55 00 00 
     948:	49 8b 86 f2 1c 04 00 	mov    rax,QWORD PTR [r14+0x41cf2]
     94f:	48 05 08 09 20 00    	add    rax,0x200908
     955:	48 89 c7             	mov    rdi,rax
     958:	49 be 54 74 55 55 55 	movabs r14,0x555555557454
     95f:	55 00 00 
     962:	4d 8d 6d f8          	lea    r13,[r13-0x8]
     966:	4d 89 75 00          	mov    QWORD PTR [r13+0x0],r14
     96a:	e9 a4 84 00 00       	jmp    0x8e13
     96f:	49 be 5b 74 55 55 55 	movabs r14,0x55555555745b
     976:	55 00 00 
     979:	49 8b 86 dd 1c 04 00 	mov    rax,QWORD PTR [r14+0x41cdd]
     980:	48 05 08 09 20 00    	add    rax,0x200908
     986:	48 89 c7             	mov    rdi,rax
     989:	49 be 69 74 55 55 55 	movabs r14,0x555555557469
     990:	55 00 00 
     993:	4d 8d 6d f8          	lea    r13,[r13-0x8]
     997:	4d 89 75 00          	mov    QWORD PTR [r13+0x0],r14
     99b:	e9 71 f7 ff ff       	jmp    0x111
     9a0:	49 be 70 74 55 55 55 	movabs r14,0x555555557470
     9a7:	55 00 00 
     9aa:	49 8b 86 c8 1c 04 00 	mov    rax,QWORD PTR [r14+0x41cc8]
     9b1:	48 05 78 08 20 00    	add    rax,0x200878
     9b7:	48 89 c7             	mov    rdi,rax
     9ba:	49 be 7e 74 55 55 55 	movabs r14,0x55555555747e
     9c1:	55 00 00 
     9c4:	4d 8d 6d f8          	lea    r13,[r13-0x8]
     9c8:	4d 89 75 00          	mov    QWORD PTR [r13+0x0],r14
     9cc:	e9 42 84 00 00       	jmp    0x8e13
     9d1:	49 be 7e 74 55 55 55 	movabs r14,0x55555555747e
     9d8:	55 00 00 
     9db:	49 ff c3             	inc    r11
     9de:	49 f7 c3 00 00 00 01 	test   r11,0x1000000
     9e5:	0f 85 5a 84 00 00    	jne    0x8e45
     9eb:	48 98                	cdqe   
     9ed:	49 89 44 24 d0       	mov    QWORD PTR [r12-0x30],rax
     9f2:	49 83 7c 24 d0 00    	cmp    QWORD PTR [r12-0x30],0x0
     9f8:	74 44                	je     0xa3e
     9fa:	49 be 92 74 55 55 55 	movabs r14,0x555555557492
     a01:	55 00 00 
     a04:	49 8d be 7e 6b 01 00 	lea    rdi,[r14+0x16b7e]
     a0b:	49 be 97 74 55 55 55 	movabs r14,0x555555557497
     a12:	55 00 00 
     a15:	4d 8d 6d f8          	lea    r13,[r13-0x8]
     a19:	4d 89 75 00          	mov    QWORD PTR [r13+0x0],r14
     a1d:	e9 a4 81 00 00       	jmp    0x8bc6
     a22:	bf ff ff ff ff       	mov    edi,0xffffffff
     a27:	49 be a1 74 55 55 55 	movabs r14,0x5555555574a1
     a2e:	55 00 00 
     a31:	4d 8d 6d f8          	lea    r13,[r13-0x8]
     a35:	4d 89 75 00          	mov    QWORD PTR [r13+0x0],r14
     a39:	e9 58 82 00 00       	jmp    0x8c96
     a3e:	49 be a1 74 55 55 55 	movabs r14,0x5555555574a1
     a45:	55 00 00 
     a48:	49 ff c3             	inc    r11
     a4b:	49 f7 c3 00 00 00 01 	test   r11,0x1000000
     a52:	0f 85 ed 83 00 00    	jne    0x8e45
     a58:	49 be a8 74 55 55 55 	movabs r14,0x5555555574a8
     a5f:	55 00 00 
     a62:	49 8b 86 90 1c 04 00 	mov    rax,QWORD PTR [r14+0x41c90]
     a69:	48 8b 80 d8 08 20 00 	mov    rax,QWORD PTR [rax+0x2008d8]
     a70:	49 89 44 24 d8       	mov    QWORD PTR [r12-0x28],rax
     a75:	49 be ba 74 55 55 55 	movabs r14,0x5555555574ba
     a7c:	55 00 00 
     a7f:	49 8b 86 7e 1c 04 00 	mov    rax,QWORD PTR [r14+0x41c7e]
     a86:	48 8b 90 d0 08 20 00 	mov    rdx,QWORD PTR [rax+0x2008d0]
     a8d:	48 83 c2 01          	add    rdx,0x1
     a91:	48 89 90 d0 08 20 00 	mov    QWORD PTR [rax+0x2008d0],rdx
     a98:	48 8b 80 d0 08 20 00 	mov    rax,QWORD PTR [rax+0x2008d0]
     a9f:	49 be da 74 55 55 55 	movabs r14,0x5555555574da
     aa6:	55 00 00 
     aa9:	49 8b 96 d6 3d 04 00 	mov    rdx,QWORD PTR [r14+0x43dd6]
     ab0:	48 39 d0             	cmp    rax,rdx
     ab3:	0f 84 5d 01 00 00    	je     0xc16
     ab9:	49 8d 84 24 40 ff ff 	lea    rax,[r12-0xc0]
     ac0:	ff 
     ac1:	48 89 c6             	mov    rsi,rax
     ac4:	bf 01 00 00 00       	mov    edi,0x1
     ac9:	49 be f3 74 55 55 55 	movabs r14,0x5555555574f3
     ad0:	55 00 00 
     ad3:	4d 8d 6d f8          	lea    r13,[r13-0x8]
     ad7:	4d 89 75 00          	mov    QWORD PTR [r13+0x0],r14
     adb:	e9 00 f6 ff ff       	jmp    0xe0
     ae0:	49 be f3 74 55 55 55 	movabs r14,0x5555555574f3
     ae7:	55 00 00 
     aea:	49 ff c3             	inc    r11
     aed:	49 f7 c3 00 00 00 01 	test   r11,0x1000000
     af4:	0f 85 4b 83 00 00    	jne    0x8e45
     afa:	eb 75                	jmp    0xb71
     afc:	49 be fc 74 55 55 55 	movabs r14,0x5555555574fc
     b03:	55 00 00 
     b06:	49 8b 86 3c 1c 04 00 	mov    rax,QWORD PTR [r14+0x41c3c]
     b0d:	48 8d 90 78 08 20 00 	lea    rdx,[rax+0x200878]
     b14:	49 be 0a 75 55 55 55 	movabs r14,0x55555555750a
     b1b:	55 00 00 
     b1e:	49 8b 86 2e 1c 04 00 	mov    rax,QWORD PTR [r14+0x41c2e]
     b25:	48 05 a0 08 20 00    	add    rax,0x2008a0
     b2b:	48 89 d6             	mov    rsi,rdx
     b2e:	48 89 c7             	mov    rdi,rax
     b31:	49 be 1b 75 55 55 55 	movabs r14,0x55555555751b
     b38:	55 00 00 
     b3b:	4d 8d 6d f8          	lea    r13,[r13-0x8]
     b3f:	4d 89 75 00          	mov    QWORD PTR [r13+0x0],r14
     b43:	e9 67 f5 ff ff       	jmp    0xaf
     b48:	49 be 1b 75 55 55 55 	movabs r14,0x55555555751b
     b4f:	55 00 00 
     b52:	49 ff c3             	inc    r11
     b55:	49 f7 c3 00 00 00 01 	test   r11,0x1000000
     b5c:	0f 85 e3 82 00 00    	jne    0x8e45
     b62:	48 98                	cdqe   
     b64:	49 89 44 24 d0       	mov    QWORD PTR [r12-0x30],rax
     b69:	49 83 7c 24 d0 00    	cmp    QWORD PTR [r12-0x30],0x0
     b6f:	75 59                	jne    0xbca
     b71:	49 be 28 75 55 55 55 	movabs r14,0x555555557528
     b78:	55 00 00 
     b7b:	49 ff c3             	inc    r11
     b7e:	49 f7 c3 00 00 00 01 	test   r11,0x1000000
     b85:	0f 85 ba 82 00 00    	jne    0x8e45
     b8b:	49 be 2f 75 55 55 55 	movabs r14,0x55555555752f
     b92:	55 00 00 
     b95:	49 8b 86 09 1c 04 00 	mov    rax,QWORD PTR [r14+0x41c09]
     b9c:	48 8b 80 d8 08 20 00 	mov    rax,QWORD PTR [rax+0x2008d8]
     ba3:	49 39 44 24 d8       	cmp    QWORD PTR [r12-0x28],rax
     ba8:	0f 84 4e ff ff ff    	je     0xafc
     bae:	49 be 3c 75 55 55 55 	movabs r14,0x55555555753c
     bb5:	55 00 00 
     bb8:	49 ff c3             	inc    r11
     bbb:	49 f7 c3 00 00 00 01 	test   r11,0x1000000
     bc2:	0f 85 7d 82 00 00    	jne    0x8e45
     bc8:	eb 01                	jmp    0xbcb
     bca:	90                   	nop
     bcb:	41 8b 84 24 40 ff ff 	mov    eax,DWORD PTR [r12-0xc0]
     bd2:	ff 
     bd3:	49 8d 94 24 44 ff ff 	lea    rdx,[r12-0xbc]
     bda:	ff 
     bdb:	48 89 d6             	mov    rsi,rdx
     bde:	89 c7                	mov    edi,eax
     be0:	49 be 56 75 55 55 55 	movabs r14,0x555555557556
     be7:	55 00 00 
     bea:	4d 8d 6d f8          	lea    r13,[r13-0x8]
     bee:	4d 89 75 00          	mov    QWORD PTR [r13+0x0],r14
     bf2:	e9 e9 f4 ff ff       	jmp    0xe0
     bf7:	49 be 56 75 55 55 55 	movabs r14,0x555555557556
     bfe:	55 00 00 
     c01:	49 ff c3             	inc    r11
     c04:	49 f7 c3 00 00 00 01 	test   r11,0x1000000
     c0b:	0f 85 34 82 00 00    	jne    0x8e45
     c11:	e9 8d 00 00 00       	jmp    0xca3
     c16:	49 be 5f 75 55 55 55 	movabs r14,0x55555555755f
     c1d:	55 00 00 
     c20:	49 8b 86 d9 1b 04 00 	mov    rax,QWORD PTR [r14+0x41bd9]
     c27:	48 8b 80 d8 08 20 00 	mov    rax,QWORD PTR [rax+0x2008d8]
     c2e:	48 85 c0             	test   rax,rax
     c31:	0f 94 c2             	sete   dl
     c34:	49 be 73 75 55 55 55 	movabs r14,0x555555557573
     c3b:	55 00 00 
     c3e:	49 8b 86 c5 1b 04 00 	mov    rax,QWORD PTR [r14+0x41bc5]
     c45:	0f b6 d2             	movzx  edx,dl
     c48:	48 89 90 d8 08 20 00 	mov    QWORD PTR [rax+0x2008d8],rdx
     c4f:	49 be 84 75 55 55 55 	movabs r14,0x555555557584
     c56:	55 00 00 
     c59:	49 8b 86 b4 1b 04 00 	mov    rax,QWORD PTR [r14+0x41bb4]
     c60:	48 c7 80 d0 08 20 00 	mov    QWORD PTR [rax+0x2008d0],0x0
     c67:	00 00 00 00 
     c6b:	49 be 96 75 55 55 55 	movabs r14,0x555555557596
     c72:	55 00 00 
     c75:	49 8b 86 a2 1b 04 00 	mov    rax,QWORD PTR [r14+0x41ba2]
     c7c:	48 05 a0 08 20 00    	add    rax,0x2008a0
     c82:	48 89 c7             	mov    rdi,rax
     c85:	49 be a4 75 55 55 55 	movabs r14,0x5555555575a4
     c8c:	55 00 00 
     c8f:	4d 8d 6d f8          	lea    r13,[r13-0x8]
     c93:	4d 89 75 00          	mov    QWORD PTR [r13+0x0],r14
     c97:	e9 e2 f3 ff ff       	jmp    0x7e
     c9c:	48 98                	cdqe   
     c9e:	49 89 44 24 d0       	mov    QWORD PTR [r12-0x30],rax
     ca3:	49 be b1 75 55 55 55 	movabs r14,0x5555555575b1
     caa:	55 00 00 
     cad:	49 8b 86 87 1b 04 00 	mov    rax,QWORD PTR [r14+0x41b87]
     cb4:	48 05 78 08 20 00    	add    rax,0x200878
     cba:	48 89 c7             	mov    rdi,rax
     cbd:	49 be bf 75 55 55 55 	movabs r14,0x5555555575bf
     cc4:	55 00 00 
     cc7:	4d 8d 6d f8          	lea    r13,[r13-0x8]
     ccb:	4d 89 75 00          	mov    QWORD PTR [r13+0x0],r14
     ccf:	e9 3d f4 ff ff       	jmp    0x111
     cd4:	49 be bf 75 55 55 55 	movabs r14,0x5555555575bf
     cdb:	55 00 00 
     cde:	49 ff c3             	inc    r11
     ce1:	49 f7 c3 00 00 00 01 	test   r11,0x1000000
     ce8:	0f 85 57 81 00 00    	jne    0x8e45
     cee:	90                   	nop
     cef:	49 8b 44 24 f8       	mov    rax,QWORD PTR [r12-0x8]
     cf4:	4c 8b 75 80          	mov    r14,QWORD PTR [rbp-0x80]
     cf8:	49 33 46 28          	xor    rax,QWORD PTR [r14+0x28]
     cfc:	74 17                	je     0xd15
     cfe:	49 be d4 75 55 55 55 	movabs r14,0x5555555575d4
     d05:	55 00 00 
     d08:	4d 8d 6d f8          	lea    r13,[r13-0x8]
     d0c:	4d 89 75 00          	mov    QWORD PTR [r13+0x0],r14
     d10:	e9 51 80 00 00       	jmp    0x8d66
     d15:	4d 89 e5             	mov    r13,r12
     d18:	4d 8b 65 00          	mov    r12,QWORD PTR [r13+0x0]
     d1c:	4d 8d 6d 08          	lea    r13,[r13+0x8]
     d20:	4d 8b 75 00          	mov    r14,QWORD PTR [r13+0x0]
     d24:	4d 8d 6d 08          	lea    r13,[r13+0x8]
     d28:	e9 c9 7b 00 00       	jmp    0x88f6
     d2d:	49 be f6 83 55 55 55 	movabs r14,0x5555555583f6
     d34:	55 00 00 
     d37:	49 8b 8e ca 2e 04 00 	mov    rcx,QWORD PTR [r14+0x42eca]
     d3e:	49 8b 44 24 88       	mov    rax,QWORD PTR [r12-0x78]
     d43:	48 99                	cqo    
     d45:	48 f7 f9             	idiv   rcx
     d48:	49 8b 44 24 98       	mov    rax,QWORD PTR [r12-0x68]
     d4d:	48 0f af c2          	imul   rax,rdx
     d51:	49 89 44 24 c8       	mov    QWORD PTR [r12-0x38],rax
     d56:	49 be 12 84 55 55 55 	movabs r14,0x555555558412
     d5d:	55 00 00 
     d60:	49 8b 86 6e 2e 04 00 	mov    rax,QWORD PTR [r14+0x42e6e]
     d67:	49 8b 4c 24 c8       	mov    rcx,QWORD PTR [r12-0x38]
     d6c:	49 8b 54 24 98       	mov    rdx,QWORD PTR [r12-0x68]
     d71:	48 01 ca             	add    rdx,rcx
     d74:	48 39 d0             	cmp    rax,rdx
     d77:	48 0f 4f c2          	cmovg  rax,rdx
     d7b:	49 89 44 24 d0       	mov    QWORD PTR [r12-0x30],rax
     d80:	49 be 2f 84 55 55 55 	movabs r14,0x55555555842f
     d87:	55 00 00 
     d8a:	49 8b b6 91 2e 04 00 	mov    rsi,QWORD PTR [r14+0x42e91]
     d91:	49 8b 44 24 88       	mov    rax,QWORD PTR [r12-0x78]
     d96:	48 99                	cqo    
     d98:	48 f7 fe             	idiv   rsi
     d9b:	48 89 c2             	mov    rdx,rax
     d9e:	49 8b 44 24 a0       	mov    rax,QWORD PTR [r12-0x60]
     da3:	48 0f af c2          	imul   rax,rdx
     da7:	49 89 44 24 d8       	mov    QWORD PTR [r12-0x28],rax
     dac:	49 be 4e 84 55 55 55 	movabs r14,0x55555555844e
     db3:	55 00 00 
     db6:	49 8b 86 3a 2e 04 00 	mov    rax,QWORD PTR [r14+0x42e3a]
     dbd:	49 8b 4c 24 d8       	mov    rcx,QWORD PTR [r12-0x28]
     dc2:	49 8b 54 24 a0       	mov    rdx,QWORD PTR [r12-0x60]
     dc7:	48 01 ca             	add    rdx,rcx
     dca:	48 39 d0             	cmp    rax,rdx
     dcd:	48 0f 4f c2          	cmovg  rax,rdx
     dd1:	49 89 44 24 e0       	mov    QWORD PTR [r12-0x20],rax
     dd6:	49 be 6b 84 55 55 55 	movabs r14,0x55555555846b
     ddd:	55 00 00 
     de0:	49 8b 8e cd 0c 04 00 	mov    rcx,QWORD PTR [r14+0x40ccd]
     de7:	49 8b 54 24 88       	mov    rdx,QWORD PTR [r12-0x78]
     dec:	48 89 d0             	mov    rax,rdx
     def:	48 c1 e0 02          	shl    rax,0x2
     df3:	48 01 d0             	add    rax,rdx
     df6:	48 c1 e0 03          	shl    rax,0x3
     dfa:	48 05 30 09 20 00    	add    rax,0x200930
     e00:	48 01 c8             	add    rax,rcx
     e03:	48 89 c7             	mov    rdi,rax
     e06:	49 be 8e 84 55 55 55 	movabs r14,0x55555555848e
     e0d:	55 00 00 
     e10:	4d 8d 6d f8          	lea    r13,[r13-0x8]
     e14:	4d 89 75 00          	mov    QWORD PTR [r13+0x0],r14
     e18:	e9 f6 7f 00 00       	jmp    0x8e13
     e1d:	49 be 95 84 55 55 55 	movabs r14,0x555555558495
     e24:	55 00 00 
     e27:	49 8b 96 a3 0c 04 00 	mov    rdx,QWORD PTR [r14+0x40ca3]
     e2e:	49 8b 44 24 88       	mov    rax,QWORD PTR [r12-0x78]
     e33:	48 c1 e0 0b          	shl    rax,0xb
     e37:	48 01 d0             	add    rax,rdx
     e3a:	48 83 c0 10          	add    rax,0x10
     e3e:	48 8b 00             	mov    rax,QWORD PTR [rax]
     e41:	48 8d 48 01          	lea    rcx,[rax+0x1]
     e45:	49 8b 74 24 88       	mov    rsi,QWORD PTR [r12-0x78]
     e4a:	48 c1 e6 0b          	shl    rsi,0xb
     e4e:	48 01 f2             	add    rdx,rsi
     e51:	48 83 c2 10          	add    rdx,0x10
     e55:	48 89 0a             	mov    QWORD PTR [rdx],rcx
     e58:	49 89 44 24 90       	mov    QWORD PTR [r12-0x70],rax
     e5d:	49 be c8 84 55 55 55 	movabs r14,0x5555555584c8
     e64:	55 00 00 
     e67:	49 8b 8e 70 0c 04 00 	mov    rcx,QWORD PTR [r14+0x40c70]
     e6e:	49 8b 54 24 88       	mov    rdx,QWORD PTR [r12-0x78]
     e73:	48 89 d0             	mov    rax,rdx
     e76:	48 c1 e0 02          	shl    rax,0x2
     e7a:	48 01 d0             	add    rax,rdx
     e7d:	48 c1 e0 03          	shl    rax,0x3
     e81:	48 05 30 09 20 00    	add    rax,0x200930
     e87:	48 01 c8             	add    rax,rcx
     e8a:	48 89 c7             	mov    rdi,rax
     e8d:	49 be eb 84 55 55 55 	movabs r14,0x5555555584eb
     e94:	55 00 00 
     e97:	4d 8d 6d f8          	lea    r13,[r13-0x8]
     e9b:	4d 89 75 00          	mov    QWORD PTR [r13+0x0],r14
     e9f:	e9 6d f2 ff ff       	jmp    0x111
     ea4:	49 be eb 84 55 55 55 	movabs r14,0x5555555584eb
     eab:	55 00 00 
     eae:	49 ff c3             	inc    r11
     eb1:	49 f7 c3 00 00 00 01 	test   r11,0x1000000
     eb8:	0f 85 87 7f 00 00    	jne    0x8e45
     ebe:	e9 f5 02 00 00       	jmp    0x11b8
     ec3:	49 be f0 84 55 55 55 	movabs r14,0x5555555584f0
     eca:	55 00 00 
     ecd:	49 ff c3             	inc    r11
     ed0:	49 f7 c3 00 00 00 01 	test   r11,0x1000000
     ed7:	0f 85 68 7f 00 00    	jne    0x8e45
     edd:	49 8b 44 24 90       	mov    rax,QWORD PTR [r12-0x70]
     ee2:	48 99                	cqo    
     ee4:	49 f7 7c 24 b0       	idiv   QWORD PTR [r12-0x50]
     ee9:	49 be 01 85 55 55 55 	movabs r14,0x555555558501
     ef0:	55 00 00 
     ef3:	49 8b 86 3f 3b 04 00 	mov    rax,QWORD PTR [r14+0x43b3f]
     efa:	48 0f af d0          	imul   rdx,rax
     efe:	49 8b 44 24 c8       	mov    rax,QWORD PTR [r12-0x38]
     f03:	48 01 d0             	add    rax,rdx
     f06:	49 89 44 24 e8       	mov    QWORD PTR [r12-0x18],rax
     f0b:	49 8b 44 24 90       	mov    rax,QWORD PTR [r12-0x70]
     f10:	48 99                	cqo    
     f12:	49 f7 7c 24 b0       	idiv   QWORD PTR [r12-0x50]
     f17:	48 89 c2             	mov    rdx,rax
     f1a:	49 be 24 85 55 55 55 	movabs r14,0x555555558524
     f21:	55 00 00 
     f24:	49 8b 86 dc 3a 04 00 	mov    rax,QWORD PTR [r14+0x43adc]
     f2b:	48 0f af d0          	imul   rdx,rax
     f2f:	49 8b 44 24 d8       	mov    rax,QWORD PTR [r12-0x28]
     f34:	48 01 d0             	add    rax,rdx
     f37:	49 89 44 24 f0       	mov    QWORD PTR [r12-0x10],rax
     f3c:	49 8b 44 24 f0       	mov    rax,QWORD PTR [r12-0x10]
     f41:	49 89 44 24 80       	mov    QWORD PTR [r12-0x80],rax
     f46:	e9 3b 01 00 00       	jmp    0x1086
     f4b:	49 be 40 85 55 55 55 	movabs r14,0x555555558540
     f52:	55 00 00 
     f55:	49 ff c3             	inc    r11
     f58:	49 f7 c3 00 00 00 01 	test   r11,0x1000000
     f5f:	0f 85 e0 7e 00 00    	jne    0x8e45
     f65:	49 8b 44 24 e8       	mov    rax,QWORD PTR [r12-0x18]
     f6a:	49 89 84 24 78 ff ff 	mov    QWORD PTR [r12-0x88],rax
     f71:	ff 
     f72:	e9 9f 00 00 00       	jmp    0x1016
     f77:	f3 49 0f 2a 84 24 78 	cvtsi2ss xmm0,QWORD PTR [r12-0x88]
     f7e:	ff ff ff 
     f81:	f3 41 0f 11 84 24 70 	movss  DWORD PTR [r12-0x90],xmm0
     f88:	ff ff ff 
     f8b:	f3 49 0f 2a 44 24 80 	cvtsi2ss xmm0,QWORD PTR [r12-0x80]
     f92:	f3 41 0f 11 84 24 74 	movss  DWORD PTR [r12-0x8c],xmm0
     f99:	ff ff ff 
     f9c:	49 be 73 85 55 55 55 	movabs r14,0x555555558573
     fa3:	55 00 00 
     fa6:	49 8b 96 cd 0b 04 00 	mov    rdx,QWORD PTR [r14+0x40bcd]
     fad:	49 be 7a 85 55 55 55 	movabs r14,0x55555555857a
     fb4:	55 00 00 
     fb7:	49 8b 86 06 2d 04 00 	mov    rax,QWORD PTR [r14+0x42d06]
     fbe:	49 0f af 44 24 80    	imul   rax,QWORD PTR [r12-0x80]
     fc4:	48 89 c1             	mov    rcx,rax
     fc7:	49 8b 84 24 78 ff ff 	mov    rax,QWORD PTR [r12-0x88]
     fce:	ff 
     fcf:	48 01 c8             	add    rax,rcx
     fd2:	48 01 d0             	add    rax,rdx
     fd5:	49 89 44 24 f8       	mov    QWORD PTR [r12-0x8],rax
     fda:	f3 41 0f 5a 8c 24 74 	cvtss2sd xmm1,DWORD PTR [r12-0x8c]
     fe1:	ff ff ff 
     fe4:	f3 41 0f 5a 84 24 70 	cvtss2sd xmm0,DWORD PTR [r12-0x90]
     feb:	ff ff ff 
     fee:	49 8b 44 24 f8       	mov    rax,QWORD PTR [r12-0x8]
     ff3:	48 89 c7             	mov    rdi,rax
     ff6:	49 be af 85 55 55 55 	movabs r14,0x5555555585af
     ffd:	55 00 00 
    1000:	4d 8d 6d f8          	lea    r13,[r13-0x8]
    1004:	4d 89 75 00          	mov    QWORD PTR [r13+0x0],r14
    1008:	e9 a7 7d 00 00       	jmp    0x8db4
    100d:	49 83 84 24 78 ff ff 	add    QWORD PTR [r12-0x88],0x1
    1014:	ff 01 
    1016:	49 be b7 85 55 55 55 	movabs r14,0x5555555585b7
    101d:	55 00 00 
    1020:	49 ff c3             	inc    r11
    1023:	49 f7 c3 00 00 00 01 	test   r11,0x1000000
    102a:	0f 85 15 7e 00 00    	jne    0x8e45
    1030:	49 be be 85 55 55 55 	movabs r14,0x5555555585be
    1037:	55 00 00 
    103a:	49 8b 96 82 3a 04 00 	mov    rdx,QWORD PTR [r14+0x43a82]
    1041:	49 8b 44 24 e8       	mov    rax,QWORD PTR [r12-0x18]
    1046:	48 01 d0             	add    rax,rdx
    1049:	49 39 84 24 78 ff ff 	cmp    QWORD PTR [r12-0x88],rax
    1050:	ff 
    1051:	7d 2d                	jge    0x1080
    1053:	49 be ce 85 55 55 55 	movabs r14,0x5555555585ce
    105a:	55 00 00 
    105d:	49 ff c3             	inc    r11
    1060:	49 f7 c3 00 00 00 01 	test   r11,0x1000000
    1067:	0f 85 d8 7d 00 00    	jne    0x8e45
    106d:	49 8b 84 24 78 ff ff 	mov    rax,QWORD PTR [r12-0x88]
    1074:	ff 
    1075:	49 3b 44 24 d0       	cmp    rax,QWORD PTR [r12-0x30]
    107a:	0f 8c f7 fe ff ff    	jl     0xf77
    1080:	49 83 44 24 80 01    	add    QWORD PTR [r12-0x80],0x1
    1086:	49 be e4 85 55 55 55 	movabs r14,0x5555555585e4
    108d:	55 00 00 
    1090:	49 ff c3             	inc    r11
    1093:	49 f7 c3 00 00 00 01 	test   r11,0x1000000
    109a:	0f 85 a5 7d 00 00    	jne    0x8e45
    10a0:	49 be eb 85 55 55 55 	movabs r14,0x5555555585eb
    10a7:	55 00 00 
    10aa:	49 8b 96 15 3a 04 00 	mov    rdx,QWORD PTR [r14+0x43a15]
    10b1:	49 8b 44 24 f0       	mov    rax,QWORD PTR [r12-0x10]
    10b6:	48 01 d0             	add    rax,rdx
    10b9:	49 39 44 24 80       	cmp    QWORD PTR [r12-0x80],rax
    10be:	7d 2a                	jge    0x10ea
    10c0:	49 be f8 85 55 55 55 	movabs r14,0x5555555585f8
    10c7:	55 00 00 
    10ca:	49 ff c3             	inc    r11
    10cd:	49 f7 c3 00 00 00 01 	test   r11,0x1000000
    10d4:	0f 85 6b 7d 00 00    	jne    0x8e45
    10da:	49 8b 44 24 80       	mov    rax,QWORD PTR [r12-0x80]
    10df:	49 3b 44 24 e0       	cmp    rax,QWORD PTR [r12-0x20]
    10e4:	0f 8c 61 fe ff ff    	jl     0xf4b
    10ea:	49 be 0d 86 55 55 55 	movabs r14,0x55555555860d
    10f1:	55 00 00 
    10f4:	49 8b 8e 2b 0b 04 00 	mov    rcx,QWORD PTR [r14+0x40b2b]
    10fb:	49 8b 54 24 88       	mov    rdx,QWORD PTR [r12-0x78]
    1100:	48 89 d0             	mov    rax,rdx
    1103:	48 c1 e0 02          	shl    rax,0x2
    1107:	48 01 d0             	add    rax,rdx
    110a:	48 c1 e0 03          	shl    rax,0x3
    110e:	48 05 30 09 20 00    	add    rax,0x200930
    1114:	48 01 c8             	add    rax,rcx
    1117:	48 89 c7             	mov    rdi,rax
    111a:	49 be 30 86 55 55 55 	movabs r14,0x555555558630
    1121:	55 00 00 
    1124:	4d 8d 6d f8          	lea    r13,[r13-0x8]
    1128:	4d 89 75 00          	mov    QWORD PTR [r13+0x0],r14
    112c:	e9 e2 7c 00 00       	jmp    0x8e13
    1131:	49 be 37 86 55 55 55 	movabs r14,0x555555558637
    1138:	55 00 00 
    113b:	49 8b 96 01 0b 04 00 	mov    rdx,QWORD PTR [r14+0x40b01]
    1142:	49 8b 44 24 88       	mov    rax,QWORD PTR [r12-0x78]
    1147:	48 c1 e0 0b          	shl    rax,0xb
    114b:	48 01 d0             	add    rax,rdx
    114e:	48 83 c0 10          	add    rax,0x10
    1152:	48 8b 00             	mov    rax,QWORD PTR [rax]
    1155:	48 8d 48 01          	lea    rcx,[rax+0x1]
    1159:	49 8b 74 24 88       	mov    rsi,QWORD PTR [r12-0x78]
    115e:	48 c1 e6 0b          	shl    rsi,0xb
    1162:	48 01 f2             	add    rdx,rsi
    1165:	48 83 c2 10          	add    rdx,0x10
    1169:	48 89 0a             	mov    QWORD PTR [rdx],rcx
    116c:	49 89 44 24 90       	mov    QWORD PTR [r12-0x70],rax
    1171:	49 be 6a 86 55 55 55 	movabs r14,0x55555555866a
    1178:	55 00 00 
    117b:	49 8b 8e ce 0a 04 00 	mov    rcx,QWORD PTR [r14+0x40ace]
    1182:	49 8b 54 24 88       	mov    rdx,QWORD PTR [r12-0x78]
    1187:	48 89 d0             	mov    rax,rdx
    118a:	48 c1 e0 02          	shl    rax,0x2
    118e:	48 01 d0             	add    rax,rdx
    1191:	48 c1 e0 03          	shl    rax,0x3
    1195:	48 05 30 09 20 00    	add    rax,0x200930
    119b:	48 01 c8             	add    rax,rcx
    119e:	48 89 c7             	mov    rdi,rax
    11a1:	49 be 8d 86 55 55 55 	movabs r14,0x55555555868d
    11a8:	55 00 00 
    11ab:	4d 8d 6d f8          	lea    r13,[r13-0x8]
    11af:	4d 89 75 00          	mov    QWORD PTR [r13+0x0],r14
    11b3:	e9 59 ef ff ff       	jmp    0x111
    11b8:	49 be 8d 86 55 55 55 	movabs r14,0x55555555868d
    11bf:	55 00 00 
    11c2:	49 ff c3             	inc    r11
    11c5:	49 f7 c3 00 00 00 01 	test   r11,0x1000000
    11cc:	0f 85 73 7c 00 00    	jne    0x8e45
    11d2:	49 8b 44 24 90       	mov    rax,QWORD PTR [r12-0x70]
    11d7:	49 3b 44 24 c0       	cmp    rax,QWORD PTR [r12-0x40]
    11dc:	0f 8c e1 fc ff ff    	jl     0xec3
    11e2:	49 be 9b 86 55 55 55 	movabs r14,0x55555555869b
    11e9:	55 00 00 
    11ec:	49 ff c3             	inc    r11
    11ef:	49 f7 c3 00 00 00 01 	test   r11,0x1000000
    11f6:	0f 85 49 7c 00 00    	jne    0x8e45
    11fc:	49 8b 84 24 68 ff ff 	mov    rax,QWORD PTR [r12-0x98]
    1203:	ff 
    1204:	49 3b 44 24 88       	cmp    rax,QWORD PTR [r12-0x78]
    1209:	0f 85 eb 00 00 00    	jne    0x12fa
    120f:	49 be b3 86 55 55 55 	movabs r14,0x5555555586b3
    1216:	55 00 00 
    1219:	49 8b 8e 85 0a 04 00 	mov    rcx,QWORD PTR [r14+0x40a85]
    1220:	49 be ba 86 55 55 55 	movabs r14,0x5555555586ba
    1227:	55 00 00 
    122a:	49 8b 96 f6 2b 04 00 	mov    rdx,QWORD PTR [r14+0x42bf6]
    1231:	48 89 d0             	mov    rax,rdx
    1234:	48 c1 e0 02          	shl    rax,0x2
    1238:	48 01 d0             	add    rax,rdx
    123b:	48 c1 e0 03          	shl    rax,0x3
    123f:	48 05 30 09 20 00    	add    rax,0x200930
    1245:	48 01 c8             	add    rax,rcx
    1248:	48 89 c7             	mov    rdi,rax
    124b:	49 be d9 86 55 55 55 	movabs r14,0x5555555586d9
    1252:	55 00 00 
    1255:	4d 8d 6d f8          	lea    r13,[r13-0x8]
    1259:	4d 89 75 00          	mov    QWORD PTR [r13+0x0],r14
    125d:	e9 b1 7b 00 00       	jmp    0x8e13
    1262:	49 be e0 86 55 55 55 	movabs r14,0x5555555586e0
    1269:	55 00 00 
    126c:	49 8b 86 58 0a 04 00 	mov    rax,QWORD PTR [r14+0x40a58]
    1273:	49 be e7 86 55 55 55 	movabs r14,0x5555555586e7
    127a:	55 00 00 
    127d:	49 8b 96 c9 2b 04 00 	mov    rdx,QWORD PTR [r14+0x42bc9]
    1284:	48 89 d1             	mov    rcx,rdx
    1287:	48 c1 e1 0b          	shl    rcx,0xb
    128b:	48 01 c1             	add    rcx,rax
    128e:	48 83 c1 10          	add    rcx,0x10
    1292:	48 8b 09             	mov    rcx,QWORD PTR [rcx]
    1295:	48 83 e9 01          	sub    rcx,0x1
    1299:	48 c1 e2 0b          	shl    rdx,0xb
    129d:	48 01 d0             	add    rax,rdx
    12a0:	48 83 c0 10          	add    rax,0x10
    12a4:	48 89 08             	mov    QWORD PTR [rax],rcx
    12a7:	49 be 11 87 55 55 55 	movabs r14,0x555555558711
    12ae:	55 00 00 
    12b1:	49 8b 8e 27 0a 04 00 	mov    rcx,QWORD PTR [r14+0x40a27]
    12b8:	49 be 18 87 55 55 55 	movabs r14,0x555555558718
    12bf:	55 00 00 
    12c2:	49 8b 96 98 2b 04 00 	mov    rdx,QWORD PTR [r14+0x42b98]
    12c9:	48 89 d0             	mov    rax,rdx
    12cc:	48 c1 e0 02          	shl    rax,0x2
    12d0:	48 01 d0             	add    rax,rdx
    12d3:	48 c1 e0 03          	shl    rax,0x3
    12d7:	48 05 30 09 20 00    	add    rax,0x200930
    12dd:	48 01 c8             	add    rax,rcx
    12e0:	48 89 c7             	mov    rdi,rax
    12e3:	49 be 37 87 55 55 55 	movabs r14,0x555555558737
    12ea:	55 00 00 
    12ed:	4d 8d 6d f8          	lea    r13,[r13-0x8]
    12f1:	4d 89 75 00          	mov    QWORD PTR [r13+0x0],r14
    12f5:	e9 17 ee ff ff       	jmp    0x111
    12fa:	49 be 37 87 55 55 55 	movabs r14,0x555555558737
    1301:	55 00 00 
    1304:	49 ff c3             	inc    r11
    1307:	49 f7 c3 00 00 00 01 	test   r11,0x1000000
    130e:	0f 85 31 7b 00 00    	jne    0x8e45
    1314:	49 8b 44 24 88       	mov    rax,QWORD PTR [r12-0x78]
    1319:	48 83 c0 01          	add    rax,0x1
    131d:	49 be 46 87 55 55 55 	movabs r14,0x555555558746
    1324:	55 00 00 
    1327:	49 8b 8e 6a 2b 04 00 	mov    rcx,QWORD PTR [r14+0x42b6a]
    132e:	48 99                	cqo    
    1330:	48 f7 f9             	idiv   rcx
    1333:	49 89 54 24 88       	mov    QWORD PTR [r12-0x78],rdx
    1338:	eb 24                	jmp    0x135e
    133a:	49 8b 44 24 88       	mov    rax,QWORD PTR [r12-0x78]
    133f:	48 83 c0 01          	add    rax,0x1
    1343:	49 be 60 87 55 55 55 	movabs r14,0x555555558760
    134a:	55 00 00 
    134d:	49 8b 8e 50 2b 04 00 	mov    rcx,QWORD PTR [r14+0x42b50]
    1354:	48 99                	cqo    
    1356:	48 f7 f9             	idiv   rcx
    1359:	49 89 54 24 88       	mov    QWORD PTR [r12-0x78],rdx
    135e:	49 be 69 87 55 55 55 	movabs r14,0x555555558769
    1365:	55 00 00 
    1368:	49 ff c3             	inc    r11
    136b:	49 f7 c3 00 00 00 01 	test   r11,0x1000000
    1372:	0f 85 cd 7a 00 00    	jne    0x8e45
    1378:	49 be 70 87 55 55 55 	movabs r14,0x555555558770
    137f:	55 00 00 
    1382:	49 8b 86 c8 09 04 00 	mov    rax,QWORD PTR [r14+0x409c8]
    1389:	49 8b 54 24 88       	mov    rdx,QWORD PTR [r12-0x78]
    138e:	48 c1 e2 0b          	shl    rdx,0xb
    1392:	48 01 d0             	add    rax,rdx
    1395:	48 83 c0 10          	add    rax,0x10
    1399:	48 8b 00             	mov    rax,QWORD PTR [rax]
    139c:	49 39 44 24 c0       	cmp    QWORD PTR [r12-0x40],rax
    13a1:	7f 53                	jg     0x13f6
    13a3:	49 be 88 87 55 55 55 	movabs r14,0x555555558788
    13aa:	55 00 00 
    13ad:	49 ff c3             	inc    r11
    13b0:	49 f7 c3 00 00 00 01 	test   r11,0x1000000
    13b7:	0f 85 88 7a 00 00    	jne    0x8e45
    13bd:	49 be 8f 87 55 55 55 	movabs r14,0x55555555878f
    13c4:	55 00 00 
    13c7:	49 8b 86 a9 09 04 00 	mov    rax,QWORD PTR [r14+0x409a9]
    13ce:	49 be 96 87 55 55 55 	movabs r14,0x555555558796
    13d5:	55 00 00 
    13d8:	49 8b 96 1a 2b 04 00 	mov    rdx,QWORD PTR [r14+0x42b1a]
    13df:	48 c1 e2 0b          	shl    rdx,0xb
    13e3:	48 01 d0             	add    rax,rdx
    13e6:	48 83 c0 10          	add    rax,0x10
    13ea:	48 8b 00             	mov    rax,QWORD PTR [rax]
    13ed:	48 85 c0             	test   rax,rax
    13f0:	0f 8f 44 ff ff ff    	jg     0x133a
    13f6:	49 be a9 87 55 55 55 	movabs r14,0x5555555587a9
    13fd:	55 00 00 
    1400:	49 ff c3             	inc    r11
    1403:	49 f7 c3 00 00 00 01 	test   r11,0x1000000
    140a:	0f 85 35 7a 00 00    	jne    0x8e45
    1410:	49 be b0 87 55 55 55 	movabs r14,0x5555555587b0
    1417:	55 00 00 
    141a:	49 8b 86 88 09 04 00 	mov    rax,QWORD PTR [r14+0x40988]
    1421:	49 be b7 87 55 55 55 	movabs r14,0x5555555587b7
    1428:	55 00 00 
    142b:	49 8b 96 f9 2a 04 00 	mov    rdx,QWORD PTR [r14+0x42af9]
    1432:	48 c1 e2 0b          	shl    rdx,0xb
    1436:	48 01 d0             	add    rax,rdx
    1439:	48 83 c0 10          	add    rax,0x10
    143d:	48 8b 00             	mov    rax,QWORD PTR [rax]
    1440:	48 85 c0             	test   rax,rax
    1443:	0f 8f e4 f8 ff ff    	jg     0xd2d
    1449:	90                   	nop
    144a:	90                   	nop
    144b:	4d 89 e5             	mov    r13,r12
    144e:	4d 8b 65 00          	mov    r12,QWORD PTR [r13+0x0]
    1452:	4d 8d 6d 08          	lea    r13,[r13+0x8]
    1456:	4d 8b 75 00          	mov    r14,QWORD PTR [r13+0x0]
    145a:	4d 8d 6d 08          	lea    r13,[r13+0x8]
    145e:	e9 84 74 00 00       	jmp    0x88e7
    1463:	49 be c9 a0 55 55 55 	movabs r14,0x55555555a0c9
    146a:	55 00 00 
    146d:	49 ff c3             	inc    r11
    1470:	49 f7 c3 00 00 00 01 	test   r11,0x1000000
    1477:	0f 85 c8 79 00 00    	jne    0x8e45
    147d:	49 c7 84 24 c8 fe ff 	mov    QWORD PTR [r12-0x138],0x0
    1484:	ff 00 00 00 00 
    1489:	e9 23 0d 00 00       	jmp    0x21b1
    148e:	49 8b 84 24 c8 fe ff 	mov    rax,QWORD PTR [r12-0x138]
    1495:	ff 
    1496:	49 be e7 a0 55 55 55 	movabs r14,0x55555555a0e7
    149d:	55 00 00 
    14a0:	49 89 86 99 10 04 00 	mov    QWORD PTR [r14+0x41099],rax
    14a7:	49 be ee a0 55 55 55 	movabs r14,0x55555555a0ee
    14ae:	55 00 00 
    14b1:	49 8b 96 52 f0 03 00 	mov    rdx,QWORD PTR [r14+0x3f052]
    14b8:	49 8b 84 24 f0 fe ff 	mov    rax,QWORD PTR [r12-0x110]
    14bf:	ff 
    14c0:	49 0f af 84 24 e8 fe 	imul   rax,QWORD PTR [r12-0x118]
    14c7:	ff ff 
    14c9:	48 01 d0             	add    rax,rdx
    14cc:	49 89 84 24 d8 fe ff 	mov    QWORD PTR [r12-0x128],rax
    14d3:	ff 
    14d4:	49 be 0e a1 55 55 55 	movabs r14,0x55555555a10e
    14db:	55 00 00 
    14de:	49 8b 96 f2 ef 03 00 	mov    rdx,QWORD PTR [r14+0x3eff2]
    14e5:	49 8b 84 24 f8 fe ff 	mov    rax,QWORD PTR [r12-0x108]
    14ec:	ff 
    14ed:	49 0f af 84 24 e8 fe 	imul   rax,QWORD PTR [r12-0x118]
    14f4:	ff ff 
    14f6:	48 01 d0             	add    rax,rdx
    14f9:	49 89 84 24 e0 fe ff 	mov    QWORD PTR [r12-0x120],rax
    1500:	ff 
    1501:	49 be 2e a1 55 55 55 	movabs r14,0x55555555a12e
    1508:	55 00 00 
    150b:	49 8b 86 0a f0 03 00 	mov    rax,QWORD PTR [r14+0x3f00a]
    1512:	48 05 10 08 20 00    	add    rax,0x200810
    1518:	48 89 c7             	mov    rdi,rax
    151b:	49 be 3c a1 55 55 55 	movabs r14,0x55555555a13c
    1522:	55 00 00 
    1525:	4d 8d 6d f8          	lea    r13,[r13-0x8]
    1529:	4d 89 75 00          	mov    QWORD PTR [r13+0x0],r14
    152d:	e9 e1 78 00 00       	jmp    0x8e13
    1532:	49 be 3c a1 55 55 55 	movabs r14,0x55555555a13c
    1539:	55 00 00 
    153c:	49 ff c3             	inc    r11
    153f:	49 f7 c3 00 00 00 01 	test   r11,0x1000000
    1546:	0f 85 f9 78 00 00    	jne    0x8e45
    154c:	48 98                	cdqe   
    154e:	49 89 84 24 00 ff ff 	mov    QWORD PTR [r12-0x100],rax
    1555:	ff 
    1556:	49 83 bc 24 00 ff ff 	cmp    QWORD PTR [r12-0x100],0x0
    155d:	ff 00 
    155f:	74 44                	je     0x15a5
    1561:	49 be 56 a1 55 55 55 	movabs r14,0x55555555a156
    1568:	55 00 00 
    156b:	49 8d be f2 41 01 00 	lea    rdi,[r14+0x141f2]
    1572:	49 be 5b a1 55 55 55 	movabs r14,0x55555555a15b
    1579:	55 00 00 
    157c:	4d 8d 6d f8          	lea    r13,[r13-0x8]
    1580:	4d 89 75 00          	mov    QWORD PTR [r13+0x0],r14
    1584:	e9 3d 76 00 00       	jmp    0x8bc6
    1589:	bf ff ff ff ff       	mov    edi,0xffffffff
    158e:	49 be 65 a1 55 55 55 	movabs r14,0x55555555a165
    1595:	55 00 00 
    1598:	4d 8d 6d f8          	lea    r13,[r13-0x8]
    159c:	4d 89 75 00          	mov    QWORD PTR [r13+0x0],r14
    15a0:	e9 f1 76 00 00       	jmp    0x8c96
    15a5:	49 be 65 a1 55 55 55 	movabs r14,0x55555555a165
    15ac:	55 00 00 
    15af:	49 ff c3             	inc    r11
    15b2:	49 f7 c3 00 00 00 01 	test   r11,0x1000000
    15b9:	0f 85 86 78 00 00    	jne    0x8e45
    15bf:	49 be 6c a1 55 55 55 	movabs r14,0x55555555a16c
    15c6:	55 00 00 
    15c9:	49 8b 86 cc ef 03 00 	mov    rax,QWORD PTR [r14+0x3efcc]
    15d0:	48 8b 80 70 08 20 00 	mov    rax,QWORD PTR [rax+0x200870]
    15d7:	49 89 84 24 08 ff ff 	mov    QWORD PTR [r12-0xf8],rax
    15de:	ff 
    15df:	49 be 81 a1 55 55 55 	movabs r14,0x55555555a181
    15e6:	55 00 00 
    15e9:	49 8b 86 b7 ef 03 00 	mov    rax,QWORD PTR [r14+0x3efb7]
    15f0:	48 8b 90 68 08 20 00 	mov    rdx,QWORD PTR [rax+0x200868]
    15f7:	48 83 c2 01          	add    rdx,0x1
    15fb:	48 89 90 68 08 20 00 	mov    QWORD PTR [rax+0x200868],rdx
    1602:	48 8b 80 68 08 20 00 	mov    rax,QWORD PTR [rax+0x200868]
    1609:	49 be a1 a1 55 55 55 	movabs r14,0x55555555a1a1
    1610:	55 00 00 
    1613:	49 8b 96 0f 11 04 00 	mov    rdx,QWORD PTR [r14+0x4110f]
    161a:	48 39 d0             	cmp    rax,rdx
    161d:	0f 84 66 01 00 00    	je     0x1789
    1623:	49 8d 84 24 b8 fe ff 	lea    rax,[r12-0x148]
    162a:	ff 
    162b:	48 89 c6             	mov    rsi,rax
    162e:	bf 01 00 00 00       	mov    edi,0x1
    1633:	49 be be a1 55 55 55 	movabs r14,0x55555555a1be
    163a:	55 00 00 
    163d:	4d 8d 6d f8          	lea    r13,[r13-0x8]
    1641:	4d 89 75 00          	mov    QWORD PTR [r13+0x0],r14
    1645:	e9 96 ea ff ff       	jmp    0xe0
    164a:	49 be be a1 55 55 55 	movabs r14,0x55555555a1be
    1651:	55 00 00 
    1654:	49 ff c3             	inc    r11
    1657:	49 f7 c3 00 00 00 01 	test   r11,0x1000000
    165e:	0f 85 e1 77 00 00    	jne    0x8e45
    1664:	eb 7b                	jmp    0x16e1
    1666:	49 be c7 a1 55 55 55 	movabs r14,0x55555555a1c7
    166d:	55 00 00 
    1670:	49 8b 86 71 ef 03 00 	mov    rax,QWORD PTR [r14+0x3ef71]
    1677:	48 8d 90 10 08 20 00 	lea    rdx,[rax+0x200810]
    167e:	49 be d5 a1 55 55 55 	movabs r14,0x55555555a1d5
    1685:	55 00 00 
    1688:	49 8b 86 63 ef 03 00 	mov    rax,QWORD PTR [r14+0x3ef63]
    168f:	48 05 38 08 20 00    	add    rax,0x200838
    1695:	48 89 d6             	mov    rsi,rdx
    1698:	48 89 c7             	mov    rdi,rax
    169b:	49 be e6 a1 55 55 55 	movabs r14,0x55555555a1e6
    16a2:	55 00 00 
    16a5:	4d 8d 6d f8          	lea    r13,[r13-0x8]
    16a9:	4d 89 75 00          	mov    QWORD PTR [r13+0x0],r14
    16ad:	e9 fd e9 ff ff       	jmp    0xaf
    16b2:	49 be e6 a1 55 55 55 	movabs r14,0x55555555a1e6
    16b9:	55 00 00 
    16bc:	49 ff c3             	inc    r11
    16bf:	49 f7 c3 00 00 00 01 	test   r11,0x1000000
    16c6:	0f 85 79 77 00 00    	jne    0x8e45
    16cc:	48 98                	cdqe   
    16ce:	49 89 84 24 00 ff ff 	mov    QWORD PTR [r12-0x100],rax
    16d5:	ff 
    16d6:	49 83 bc 24 00 ff ff 	cmp    QWORD PTR [r12-0x100],0x0
    16dd:	ff 00 
    16df:	75 5c                	jne    0x173d
    16e1:	49 be f9 a1 55 55 55 	movabs r14,0x55555555a1f9
    16e8:	55 00 00 
    16eb:	49 ff c3             	inc    r11
    16ee:	49 f7 c3 00 00 00 01 	test   r11,0x1000000
    16f5:	0f 85 4a 77 00 00    	jne    0x8e45
    16fb:	49 be 00 a2 55 55 55 	movabs r14,0x55555555a200
    1702:	55 00 00 
    1705:	49 8b 86 38 ef 03 00 	mov    rax,QWORD PTR [r14+0x3ef38]
    170c:	48 8b 80 70 08 20 00 	mov    rax,QWORD PTR [rax+0x200870]
    1713:	49 39 84 24 08 ff ff 	cmp    QWORD PTR [r12-0xf8],rax
    171a:	ff 
    171b:	0f 84 45 ff ff ff    	je     0x1666
    1721:	49 be 10 a2 55 55 55 	movabs r14,0x55555555a210
    1728:	55 00 00 
    172b:	49 ff c3             	inc    r11
    172e:	49 f7 c3 00 00 00 01 	test   r11,0x1000000
    1735:	0f 85 0a 77 00 00    	jne    0x8e45
    173b:	eb 01                	jmp    0x173e
    173d:	90                   	nop
    173e:	41 8b 84 24 b8 fe ff 	mov    eax,DWORD PTR [r12-0x148]
    1745:	ff 
    1746:	49 8d 94 24 bc fe ff 	lea    rdx,[r12-0x144]
    174d:	ff 
    174e:	48 89 d6             	mov    rsi,rdx
    1751:	89 c7                	mov    edi,eax
    1753:	49 be 2a a2 55 55 55 	movabs r14,0x55555555a22a
    175a:	55 00 00 
    175d:	4d 8d 6d f8          	lea    r13,[r13-0x8]
    1761:	4d 89 75 00          	mov    QWORD PTR [r13+0x0],r14
    1765:	e9 76 e9 ff ff       	jmp    0xe0
    176a:	49 be 2a a2 55 55 55 	movabs r14,0x55555555a22a
    1771:	55 00 00 
    1774:	49 ff c3             	inc    r11
    1777:	49 f7 c3 00 00 00 01 	test   r11,0x1000000
    177e:	0f 85 c1 76 00 00    	jne    0x8e45
    1784:	e9 90 00 00 00       	jmp    0x1819
    1789:	49 be 33 a2 55 55 55 	movabs r14,0x55555555a233
    1790:	55 00 00 
    1793:	49 8b 86 05 ef 03 00 	mov    rax,QWORD PTR [r14+0x3ef05]
    179a:	48 8b 80 70 08 20 00 	mov    rax,QWORD PTR [rax+0x200870]
    17a1:	48 85 c0             	test   rax,rax
    17a4:	0f 94 c2             	sete   dl
    17a7:	49 be 47 a2 55 55 55 	movabs r14,0x55555555a247
    17ae:	55 00 00 
    17b1:	49 8b 86 f1 ee 03 00 	mov    rax,QWORD PTR [r14+0x3eef1]
    17b8:	0f b6 d2             	movzx  edx,dl
    17bb:	48 89 90 70 08 20 00 	mov    QWORD PTR [rax+0x200870],rdx
    17c2:	49 be 58 a2 55 55 55 	movabs r14,0x55555555a258
    17c9:	55 00 00 
    17cc:	49 8b 86 e0 ee 03 00 	mov    rax,QWORD PTR [r14+0x3eee0]
    17d3:	48 c7 80 68 08 20 00 	mov    QWORD PTR [rax+0x200868],0x0
    17da:	00 00 00 00 
    17de:	49 be 6a a2 55 55 55 	movabs r14,0x55555555a26a
    17e5:	55 00 00 
    17e8:	49 8b 86 ce ee 03 00 	mov    rax,QWORD PTR [r14+0x3eece]
    17ef:	48 05 38 08 20 00    	add    rax,0x200838
    17f5:	48 89 c7             	mov    rdi,rax
    17f8:	49 be 78 a2 55 55 55 	movabs r14,0x55555555a278
    17ff:	55 00 00 
    1802:	4d 8d 6d f8          	lea    r13,[r13-0x8]
    1806:	4d 89 75 00          	mov    QWORD PTR [r13+0x0],r14
    180a:	e9 6f e8 ff ff       	jmp    0x7e
    180f:	48 98                	cdqe   
    1811:	49 89 84 24 00 ff ff 	mov    QWORD PTR [r12-0x100],rax
    1818:	ff 
    1819:	49 be 88 a2 55 55 55 	movabs r14,0x55555555a288
    1820:	55 00 00 
    1823:	49 8b 86 b0 ee 03 00 	mov    rax,QWORD PTR [r14+0x3eeb0]
    182a:	48 05 10 08 20 00    	add    rax,0x200810
    1830:	48 89 c7             	mov    rdi,rax
    1833:	49 be 96 a2 55 55 55 	movabs r14,0x55555555a296
    183a:	55 00 00 
    183d:	4d 8d 6d f8          	lea    r13,[r13-0x8]
    1841:	4d 89 75 00          	mov    QWORD PTR [r13+0x0],r14
    1845:	e9 c7 e8 ff ff       	jmp    0x111
    184a:	49 be 96 a2 55 55 55 	movabs r14,0x55555555a296
    1851:	55 00 00 
    1854:	49 ff c3             	inc    r11
    1857:	49 f7 c3 00 00 00 01 	test   r11,0x1000000
    185e:	0f 85 e1 75 00 00    	jne    0x8e45
    1864:	49 be 9d a2 55 55 55 	movabs r14,0x55555555a29d
    186b:	55 00 00 
    186e:	49 8b 86 13 10 04 00 	mov    rax,QWORD PTR [r14+0x41013]
    1875:	48 83 e8 01          	sub    rax,0x1
    1879:	49 39 84 24 e8 fe ff 	cmp    QWORD PTR [r12-0x118],rax
    1880:	ff 
    1881:	0f 85 7b 01 00 00    	jne    0x1a02
    1887:	49 be ae a2 55 55 55 	movabs r14,0x55555555a2ae
    188e:	55 00 00 
    1891:	49 ff c3             	inc    r11
    1894:	49 f7 c3 00 00 00 01 	test   r11,0x1000000
    189b:	0f 85 a4 75 00 00    	jne    0x8e45
    18a1:	49 8b 84 24 f0 fe ff 	mov    rax,QWORD PTR [r12-0x110]
    18a8:	ff 
    18a9:	49 0f af 84 24 e8 fe 	imul   rax,QWORD PTR [r12-0x118]
    18b0:	ff ff 
    18b2:	49 89 84 24 d0 fe ff 	mov    QWORD PTR [r12-0x130],rax
    18b9:	ff 
    18ba:	eb 31                	jmp    0x18ed
    18bc:	49 8b 84 24 d8 fe ff 	mov    rax,QWORD PTR [r12-0x128]
    18c3:	ff 
    18c4:	48 8d 50 01          	lea    rdx,[rax+0x1]
    18c8:	49 89 94 24 d8 fe ff 	mov    QWORD PTR [r12-0x128],rdx
    18cf:	ff 
    18d0:	49 be df a2 55 55 55 	movabs r14,0x55555555a2df
    18d7:	55 00 00 
    18da:	41 0f b6 96 35 1d 04 	movzx  edx,BYTE PTR [r14+0x41d35]
    18e1:	00 
    18e2:	88 10                	mov    BYTE PTR [rax],dl
    18e4:	49 83 84 24 d0 fe ff 	add    QWORD PTR [r12-0x130],0x1
    18eb:	ff 01 
    18ed:	49 be e9 a2 55 55 55 	movabs r14,0x55555555a2e9
    18f4:	55 00 00 
    18f7:	49 ff c3             	inc    r11
    18fa:	49 f7 c3 00 00 00 01 	test   r11,0x1000000
    1901:	0f 85 3e 75 00 00    	jne    0x8e45
    1907:	49 be ef a2 55 55 55 	movabs r14,0x55555555a2ef
    190e:	55 00 00 
    1911:	41 8b 86 71 ee 03 00 	mov    eax,DWORD PTR [r14+0x3ee71]
    1918:	48 98                	cdqe   
    191a:	49 39 84 24 d0 fe ff 	cmp    QWORD PTR [r12-0x130],rax
    1921:	ff 
    1922:	7c 98                	jl     0x18bc
    1924:	49 be fa a2 55 55 55 	movabs r14,0x55555555a2fa
    192b:	55 00 00 
    192e:	49 ff c3             	inc    r11
    1931:	49 f7 c3 00 00 00 01 	test   r11,0x1000000
    1938:	0f 85 07 75 00 00    	jne    0x8e45
    193e:	49 be 01 a3 55 55 55 	movabs r14,0x55555555a301
    1945:	55 00 00 
    1948:	41 0f b7 86 1b 1d 04 	movzx  eax,WORD PTR [r14+0x41d1b]
    194f:	00 
    1950:	66 85 c0             	test   ax,ax
    1953:	0f 84 d3 01 00 00    	je     0x1b2c
    1959:	49 be 0a a3 55 55 55 	movabs r14,0x55555555a30a
    1960:	55 00 00 
    1963:	49 ff c3             	inc    r11
    1966:	49 f7 c3 00 00 00 01 	test   r11,0x1000000
    196d:	0f 85 d2 74 00 00    	jne    0x8e45
    1973:	49 8b 84 24 f8 fe ff 	mov    rax,QWORD PTR [r12-0x108]
    197a:	ff 
    197b:	49 0f af 84 24 e8 fe 	imul   rax,QWORD PTR [r12-0x118]
    1982:	ff ff 
    1984:	49 89 84 24 d0 fe ff 	mov    QWORD PTR [r12-0x130],rax
    198b:	ff 
    198c:	eb 20                	jmp    0x19ae
    198e:	49 8b 84 24 e0 fe ff 	mov    rax,QWORD PTR [r12-0x120]
    1995:	ff 
    1996:	48 8d 50 01          	lea    rdx,[rax+0x1]
    199a:	49 89 94 24 e0 fe ff 	mov    QWORD PTR [r12-0x120],rdx
    19a1:	ff 
    19a2:	c6 00 00             	mov    BYTE PTR [rax],0x0
    19a5:	49 83 84 24 d0 fe ff 	add    QWORD PTR [r12-0x130],0x1
    19ac:	ff 01 
    19ae:	49 be 3f a3 55 55 55 	movabs r14,0x55555555a33f
    19b5:	55 00 00 
    19b8:	49 ff c3             	inc    r11
    19bb:	49 f7 c3 00 00 00 01 	test   r11,0x1000000
    19c2:	0f 85 7d 74 00 00    	jne    0x8e45
    19c8:	49 be 46 a3 55 55 55 	movabs r14,0x55555555a346
    19cf:	55 00 00 
    19d2:	49 8b 86 e2 ed 03 00 	mov    rax,QWORD PTR [r14+0x3ede2]
    19d9:	49 39 84 24 d0 fe ff 	cmp    QWORD PTR [r12-0x130],rax
    19e0:	ff 
    19e1:	7c ab                	jl     0x198e
    19e3:	49 be 4f a3 55 55 55 	movabs r14,0x55555555a34f
    19ea:	55 00 00 
    19ed:	49 ff c3             	inc    r11
    19f0:	49 f7 c3 00 00 00 01 	test   r11,0x1000000
    19f7:	0f 85 48 74 00 00    	jne    0x8e45
    19fd:	e9 2a 01 00 00       	jmp    0x1b2c
    1a02:	49 be 54 a3 55 55 55 	movabs r14,0x55555555a354
    1a09:	55 00 00 
    1a0c:	49 ff c3             	inc    r11
    1a0f:	49 f7 c3 00 00 00 01 	test   r11,0x1000000
    1a16:	0f 85 29 74 00 00    	jne    0x8e45
    1a1c:	49 c7 84 24 d0 fe ff 	mov    QWORD PTR [r12-0x130],0x0
    1a23:	ff 00 00 00 00 
    1a28:	eb 31                	jmp    0x1a5b
    1a2a:	49 8b 84 24 d8 fe ff 	mov    rax,QWORD PTR [r12-0x128]
    1a31:	ff 
    1a32:	48 8d 50 01          	lea    rdx,[rax+0x1]
    1a36:	49 89 94 24 d8 fe ff 	mov    QWORD PTR [r12-0x128],rdx
    1a3d:	ff 
    1a3e:	49 be 7a a3 55 55 55 	movabs r14,0x55555555a37a
    1a45:	55 00 00 
    1a48:	41 0f b6 96 9a 1c 04 	movzx  edx,BYTE PTR [r14+0x41c9a]
    1a4f:	00 
    1a50:	88 10                	mov    BYTE PTR [rax],dl
    1a52:	49 83 84 24 d0 fe ff 	add    QWORD PTR [r12-0x130],0x1
    1a59:	ff 01 
    1a5b:	49 be 84 a3 55 55 55 	movabs r14,0x55555555a384
    1a62:	55 00 00 
    1a65:	49 ff c3             	inc    r11
    1a68:	49 f7 c3 00 00 00 01 	test   r11,0x1000000
    1a6f:	0f 85 d0 73 00 00    	jne    0x8e45
    1a75:	49 8b 84 24 d0 fe ff 	mov    rax,QWORD PTR [r12-0x130]
    1a7c:	ff 
    1a7d:	49 3b 84 24 f0 fe ff 	cmp    rax,QWORD PTR [r12-0x110]
    1a84:	ff 
    1a85:	7c a3                	jl     0x1a2a
    1a87:	49 be 94 a3 55 55 55 	movabs r14,0x55555555a394
    1a8e:	55 00 00 
    1a91:	49 ff c3             	inc    r11
    1a94:	49 f7 c3 00 00 00 01 	test   r11,0x1000000
    1a9b:	0f 85 a4 73 00 00    	jne    0x8e45
    1aa1:	49 be 9b a3 55 55 55 	movabs r14,0x55555555a39b
    1aa8:	55 00 00 
    1aab:	41 0f b7 86 81 1c 04 	movzx  eax,WORD PTR [r14+0x41c81]
    1ab2:	00 
    1ab3:	66 85 c0             	test   ax,ax
    1ab6:	74 74                	je     0x1b2c
    1ab8:	49 be a0 a3 55 55 55 	movabs r14,0x55555555a3a0
    1abf:	55 00 00 
    1ac2:	49 ff c3             	inc    r11
    1ac5:	49 f7 c3 00 00 00 01 	test   r11,0x1000000
    1acc:	0f 85 73 73 00 00    	jne    0x8e45
    1ad2:	49 c7 84 24 d0 fe ff 	mov    QWORD PTR [r12-0x130],0x0
    1ad9:	ff 00 00 00 00 
    1ade:	eb 20                	jmp    0x1b00
    1ae0:	49 8b 84 24 e0 fe ff 	mov    rax,QWORD PTR [r12-0x120]
    1ae7:	ff 
    1ae8:	48 8d 50 01          	lea    rdx,[rax+0x1]
    1aec:	49 89 94 24 e0 fe ff 	mov    QWORD PTR [r12-0x120],rdx
    1af3:	ff 
    1af4:	c6 00 00             	mov    BYTE PTR [rax],0x0
    1af7:	49 83 84 24 d0 fe ff 	add    QWORD PTR [r12-0x130],0x1
    1afe:	ff 01 
    1b00:	49 be ca a3 55 55 55 	movabs r14,0x55555555a3ca
    1b07:	55 00 00 
    1b0a:	49 ff c3             	inc    r11
    1b0d:	49 f7 c3 00 00 00 01 	test   r11,0x1000000
    1b14:	0f 85 2b 73 00 00    	jne    0x8e45
    1b1a:	49 8b 84 24 d0 fe ff 	mov    rax,QWORD PTR [r12-0x130]
    1b21:	ff 
    1b22:	49 3b 84 24 f8 fe ff 	cmp    rax,QWORD PTR [r12-0x108]
    1b29:	ff 
    1b2a:	7c b4                	jl     0x1ae0
    1b2c:	49 be da a3 55 55 55 	movabs r14,0x55555555a3da
    1b33:	55 00 00 
    1b36:	49 ff c3             	inc    r11
    1b39:	49 f7 c3 00 00 00 01 	test   r11,0x1000000
    1b40:	0f 85 ff 72 00 00    	jne    0x8e45
    1b46:	49 83 bc 24 e8 fe ff 	cmp    QWORD PTR [r12-0x118],0x0
    1b4d:	ff 00 
    1b4f:	75 3b                	jne    0x1b8c
    1b51:	41 8b 84 24 c0 fe ff 	mov    eax,DWORD PTR [r12-0x140]
    1b58:	ff 
    1b59:	48 63 d0             	movsxd rdx,eax
    1b5c:	49 be f4 a3 55 55 55 	movabs r14,0x55555555a3f4
    1b63:	55 00 00 
    1b66:	49 8b 86 44 40 01 00 	mov    rax,QWORD PTR [r14+0x14044]
    1b6d:	48 89 d7             	mov    rdi,rdx
    1b70:	66 48 0f 6e c0       	movq   xmm0,rax
    1b75:	49 be 01 a4 55 55 55 	movabs r14,0x55555555a401
    1b7c:	55 00 00 
    1b7f:	4d 8d 6d f8          	lea    r13,[r13-0x8]
    1b83:	4d 89 75 00          	mov    QWORD PTR [r13+0x0],r14
    1b87:	e9 f4 71 00 00       	jmp    0x8d80
    1b8c:	49 be 08 a4 55 55 55 	movabs r14,0x55555555a408
    1b93:	55 00 00 
    1b96:	49 8b 86 30 ed 03 00 	mov    rax,QWORD PTR [r14+0x3ed30]
    1b9d:	48 05 10 08 20 00    	add    rax,0x200810
    1ba3:	48 89 c7             	mov    rdi,rax
    1ba6:	49 be 16 a4 55 55 55 	movabs r14,0x55555555a416
    1bad:	55 00 00 
    1bb0:	4d 8d 6d f8          	lea    r13,[r13-0x8]
    1bb4:	4d 89 75 00          	mov    QWORD PTR [r13+0x0],r14
    1bb8:	e9 56 72 00 00       	jmp    0x8e13
    1bbd:	49 be 16 a4 55 55 55 	movabs r14,0x55555555a416
    1bc4:	55 00 00 
    1bc7:	49 ff c3             	inc    r11
    1bca:	49 f7 c3 00 00 00 01 	test   r11,0x1000000
    1bd1:	0f 85 6e 72 00 00    	jne    0x8e45
    1bd7:	48 98                	cdqe   
    1bd9:	49 89 84 24 10 ff ff 	mov    QWORD PTR [r12-0xf0],rax
    1be0:	ff 
    1be1:	49 83 bc 24 10 ff ff 	cmp    QWORD PTR [r12-0xf0],0x0
    1be8:	ff 00 
    1bea:	74 44                	je     0x1c30
    1bec:	49 be 30 a4 55 55 55 	movabs r14,0x55555555a430
    1bf3:	55 00 00 
    1bf6:	49 8d be 18 3f 01 00 	lea    rdi,[r14+0x13f18]
    1bfd:	49 be 35 a4 55 55 55 	movabs r14,0x55555555a435
    1c04:	55 00 00 
    1c07:	4d 8d 6d f8          	lea    r13,[r13-0x8]
    1c0b:	4d 89 75 00          	mov    QWORD PTR [r13+0x0],r14
    1c0f:	e9 b2 6f 00 00       	jmp    0x8bc6
    1c14:	bf ff ff ff ff       	mov    edi,0xffffffff
    1c19:	49 be 3f a4 55 55 55 	movabs r14,0x55555555a43f
    1c20:	55 00 00 
    1c23:	4d 8d 6d f8          	lea    r13,[r13-0x8]
    1c27:	4d 89 75 00          	mov    QWORD PTR [r13+0x0],r14
    1c2b:	e9 66 70 00 00       	jmp    0x8c96
    1c30:	49 be 3f a4 55 55 55 	movabs r14,0x55555555a43f
    1c37:	55 00 00 
    1c3a:	49 ff c3             	inc    r11
    1c3d:	49 f7 c3 00 00 00 01 	test   r11,0x1000000
    1c44:	0f 85 fb 71 00 00    	jne    0x8e45
    1c4a:	49 be 46 a4 55 55 55 	movabs r14,0x55555555a446
    1c51:	55 00 00 
    1c54:	49 8b 86 f2 ec 03 00 	mov    rax,QWORD PTR [r14+0x3ecf2]
    1c5b:	48 8b 80 70 08 20 00 	mov    rax,QWORD PTR [rax+0x200870]
    1c62:	49 89 84 24 18 ff ff 	mov    QWORD PTR [r12-0xe8],rax
    1c69:	ff 
    1c6a:	49 be 5b a4 55 55 55 	movabs r14,0x55555555a45b
    1c71:	55 00 00 
    1c74:	49 8b 86 dd ec 03 00 	mov    rax,QWORD PTR [r14+0x3ecdd]
    1c7b:	48 8b 90 68 08 20 00 	mov    rdx,QWORD PTR [rax+0x200868]
    1c82:	48 83 c2 01          	add    rdx,0x1
    1c86:	48 89 90 68 08 20 00 	mov    QWORD PTR [rax+0x200868],rdx
    1c8d:	48 8b 80 68 08 20 00 	mov    rax,QWORD PTR [rax+0x200868]
    1c94:	49 be 7b a4 55 55 55 	movabs r14,0x55555555a47b
    1c9b:	55 00 00 
    1c9e:	49 8b 96 35 0e 04 00 	mov    rdx,QWORD PTR [r14+0x40e35]
    1ca5:	48 39 d0             	cmp    rax,rdx
    1ca8:	0f 84 66 01 00 00    	je     0x1e14
    1cae:	49 8d 84 24 b8 fe ff 	lea    rax,[r12-0x148]
    1cb5:	ff 
    1cb6:	48 89 c6             	mov    rsi,rax
    1cb9:	bf 01 00 00 00       	mov    edi,0x1
    1cbe:	49 be 98 a4 55 55 55 	movabs r14,0x55555555a498
    1cc5:	55 00 00 
    1cc8:	4d 8d 6d f8          	lea    r13,[r13-0x8]
    1ccc:	4d 89 75 00          	mov    QWORD PTR [r13+0x0],r14
    1cd0:	e9 0b e4 ff ff       	jmp    0xe0
    1cd5:	49 be 98 a4 55 55 55 	movabs r14,0x55555555a498
    1cdc:	55 00 00 
    1cdf:	49 ff c3             	inc    r11
    1ce2:	49 f7 c3 00 00 00 01 	test   r11,0x1000000
    1ce9:	0f 85 56 71 00 00    	jne    0x8e45
    1cef:	eb 7b                	jmp    0x1d6c
    1cf1:	49 be a1 a4 55 55 55 	movabs r14,0x55555555a4a1
    1cf8:	55 00 00 
    1cfb:	49 8b 86 97 ec 03 00 	mov    rax,QWORD PTR [r14+0x3ec97]
    1d02:	48 8d 90 10 08 20 00 	lea    rdx,[rax+0x200810]
    1d09:	49 be af a4 55 55 55 	movabs r14,0x55555555a4af
    1d10:	55 00 00 
    1d13:	49 8b 86 89 ec 03 00 	mov    rax,QWORD PTR [r14+0x3ec89]
    1d1a:	48 05 38 08 20 00    	add    rax,0x200838
    1d20:	48 89 d6             	mov    rsi,rdx
    1d23:	48 89 c7             	mov    rdi,rax
    1d26:	49 be c0 a4 55 55 55 	movabs r14,0x55555555a4c0
    1d2d:	55 00 00 
    1d30:	4d 8d 6d f8          	lea    r13,[r13-0x8]
    1d34:	4d 89 75 00          	mov    QWORD PTR [r13+0x0],r14
    1d38:	e9 72 e3 ff ff       	jmp    0xaf
    1d3d:	49 be c0 a4 55 55 55 	movabs r14,0x55555555a4c0
    1d44:	55 00 00 
    1d47:	49 ff c3             	inc    r11
    1d4a:	49 f7 c3 00 00 00 01 	test   r11,0x1000000
    1d51:	0f 85 ee 70 00 00    	jne    0x8e45
    1d57:	48 98                	cdqe   
    1d59:	49 89 84 24 10 ff ff 	mov    QWORD PTR [r12-0xf0],rax
    1d60:	ff 
    1d61:	49 83 bc 24 10 ff ff 	cmp    QWORD PTR [r12-0xf0],0x0
    1d68:	ff 00 
    1d6a:	75 5c                	jne    0x1dc8
    1d6c:	49 be d3 a4 55 55 55 	movabs r14,0x55555555a4d3
    1d73:	55 00 00 
    1d76:	49 ff c3             	inc    r11
    1d79:	49 f7 c3 00 00 00 01 	test   r11,0x1000000
    1d80:	0f 85 bf 70 00 00    	jne    0x8e45
    1d86:	49 be da a4 55 55 55 	movabs r14,0x55555555a4da
    1d8d:	55 00 00 
    1d90:	49 8b 86 5e ec 03 00 	mov    rax,QWORD PTR [r14+0x3ec5e]
    1d97:	48 8b 80 70 08 20 00 	mov    rax,QWORD PTR [rax+0x200870]
    1d9e:	49 39 84 24 18 ff ff 	cmp    QWORD PTR [r12-0xe8],rax
    1da5:	ff 
    1da6:	0f 84 45 ff ff ff    	je     0x1cf1
    1dac:	49 be ea a4 55 55 55 	movabs r14,0x55555555a4ea
    1db3:	55 00 00 
    1db6:	49 ff c3             	inc    r11
    1db9:	49 f7 c3 00 00 00 01 	test   r11,0x1000000
    1dc0:	0f 85 7f 70 00 00    	jne    0x8e45
    1dc6:	eb 01                	jmp    0x1dc9
    1dc8:	90                   	nop
    1dc9:	41 8b 84 24 b8 fe ff 	mov    eax,DWORD PTR [r12-0x148]
    1dd0:	ff 
    1dd1:	49 8d 94 24 bc fe ff 	lea    rdx,[r12-0x144]
    1dd8:	ff 
    1dd9:	48 89 d6             	mov    rsi,rdx
    1ddc:	89 c7                	mov    edi,eax
    1dde:	49 be 04 a5 55 55 55 	movabs r14,0x55555555a504
    1de5:	55 00 00 
    1de8:	4d 8d 6d f8          	lea    r13,[r13-0x8]
    1dec:	4d 89 75 00          	mov    QWORD PTR [r13+0x0],r14
    1df0:	e9 eb e2 ff ff       	jmp    0xe0
    1df5:	49 be 04 a5 55 55 55 	movabs r14,0x55555555a504
    1dfc:	55 00 00 
    1dff:	49 ff c3             	inc    r11
    1e02:	49 f7 c3 00 00 00 01 	test   r11,0x1000000
    1e09:	0f 85 36 70 00 00    	jne    0x8e45
    1e0f:	e9 90 00 00 00       	jmp    0x1ea4
    1e14:	49 be 0d a5 55 55 55 	movabs r14,0x55555555a50d
    1e1b:	55 00 00 
    1e1e:	49 8b 86 2b ec 03 00 	mov    rax,QWORD PTR [r14+0x3ec2b]
    1e25:	48 8b 80 70 08 20 00 	mov    rax,QWORD PTR [rax+0x200870]
    1e2c:	48 85 c0             	test   rax,rax
    1e2f:	0f 94 c2             	sete   dl
    1e32:	49 be 21 a5 55 55 55 	movabs r14,0x55555555a521
    1e39:	55 00 00 
    1e3c:	49 8b 86 17 ec 03 00 	mov    rax,QWORD PTR [r14+0x3ec17]
    1e43:	0f b6 d2             	movzx  edx,dl
    1e46:	48 89 90 70 08 20 00 	mov    QWORD PTR [rax+0x200870],rdx
    1e4d:	49 be 32 a5 55 55 55 	movabs r14,0x55555555a532
    1e54:	55 00 00 
    1e57:	49 8b 86 06 ec 03 00 	mov    rax,QWORD PTR [r14+0x3ec06]
    1e5e:	48 c7 80 68 08 20 00 	mov    QWORD PTR [rax+0x200868],0x0
    1e65:	00 00 00 00 
    1e69:	49 be 44 a5 55 55 55 	movabs r14,0x55555555a544
    1e70:	55 00 00 
    1e73:	49 8b 86 f4 eb 03 00 	mov    rax,QWORD PTR [r14+0x3ebf4]
    1e7a:	48 05 38 08 20 00    	add    rax,0x200838
    1e80:	48 89 c7             	mov    rdi,rax
    1e83:	49 be 52 a5 55 55 55 	movabs r14,0x55555555a552
    1e8a:	55 00 00 
    1e8d:	4d 8d 6d f8          	lea    r13,[r13-0x8]
    1e91:	4d 89 75 00          	mov    QWORD PTR [r13+0x0],r14
    1e95:	e9 e4 e1 ff ff       	jmp    0x7e
    1e9a:	48 98                	cdqe   
    1e9c:	49 89 84 24 10 ff ff 	mov    QWORD PTR [r12-0xf0],rax
    1ea3:	ff 
    1ea4:	49 be 62 a5 55 55 55 	movabs r14,0x55555555a562
    1eab:	55 00 00 
    1eae:	49 8b 86 d6 eb 03 00 	mov    rax,QWORD PTR [r14+0x3ebd6]
    1eb5:	48 05 10 08 20 00    	add    rax,0x200810
    1ebb:	48 89 c7             	mov    rdi,rax
    1ebe:	49 be 70 a5 55 55 55 	movabs r14,0x55555555a570
    1ec5:	55 00 00 
    1ec8:	4d 8d 6d f8          	lea    r13,[r13-0x8]
    1ecc:	4d 89 75 00          	mov    QWORD PTR [r13+0x0],r14
    1ed0:	e9 3c e2 ff ff       	jmp    0x111
    1ed5:	49 be 77 a5 55 55 55 	movabs r14,0x55555555a577
    1edc:	55 00 00 
    1edf:	49 8b 86 c1 eb 03 00 	mov    rax,QWORD PTR [r14+0x3ebc1]
    1ee6:	49 be 7e a5 55 55 55 	movabs r14,0x55555555a57e
    1eed:	55 00 00 
    1ef0:	49 8b 96 32 0d 04 00 	mov    rdx,QWORD PTR [r14+0x40d32]
    1ef7:	48 89 50 08          	mov    QWORD PTR [rax+0x8],rdx
    1efb:	49 be 89 a5 55 55 55 	movabs r14,0x55555555a589
    1f02:	55 00 00 
    1f05:	49 8b 96 af eb 03 00 	mov    rdx,QWORD PTR [r14+0x3ebaf]
    1f0c:	49 be 90 a5 55 55 55 	movabs r14,0x55555555a590
    1f13:	55 00 00 
    1f16:	49 8b 8e 20 0d 04 00 	mov    rcx,QWORD PTR [r14+0x40d20]
    1f1d:	49 be 97 a5 55 55 55 	movabs r14,0x55555555a597
    1f24:	55 00 00 
    1f27:	49 8b 86 19 0d 04 00 	mov    rax,QWORD PTR [r14+0x40d19]
    1f2e:	48 c1 e1 0b          	shl    rcx,0xb
    1f32:	48 01 ca             	add    rdx,rcx
    1f35:	48 83 c2 10          	add    rdx,0x10
    1f39:	48 89 02             	mov    QWORD PTR [rdx],rax
    1f3c:	49 be ac a5 55 55 55 	movabs r14,0x55555555a5ac
    1f43:	55 00 00 
    1f46:	49 8b 86 8c eb 03 00 	mov    rax,QWORD PTR [r14+0x3eb8c]
    1f4d:	49 8b 94 24 e8 fe ff 	mov    rdx,QWORD PTR [r12-0x118]
    1f54:	ff 
    1f55:	48 c1 e2 0b          	shl    rdx,0xb
    1f59:	48 01 d0             	add    rax,rdx
    1f5c:	48 83 c0 10          	add    rax,0x10
    1f60:	48 c7 00 00 00 00 00 	mov    QWORD PTR [rax],0x0
    1f67:	49 8b 84 24 e8 fe ff 	mov    rax,QWORD PTR [r12-0x118]
    1f6e:	ff 
    1f6f:	48 89 c7             	mov    rdi,rax
    1f72:	49 be d4 a5 55 55 55 	movabs r14,0x55555555a5d4
    1f79:	55 00 00 
    1f7c:	4d 8d 6d f8          	lea    r13,[r13-0x8]
    1f80:	4d 89 75 00          	mov    QWORD PTR [r13+0x0],r14
    1f84:	e9 71 6c 00 00       	jmp    0x8bfa
    1f89:	49 be d4 a5 55 55 55 	movabs r14,0x55555555a5d4
    1f90:	55 00 00 
    1f93:	49 ff c3             	inc    r11
    1f96:	49 f7 c3 00 00 00 01 	test   r11,0x1000000
    1f9d:	0f 85 a2 6e 00 00    	jne    0x8e45
    1fa3:	49 83 bc 24 e8 fe ff 	cmp    QWORD PTR [r12-0x118],0x0
    1faa:	ff 00 
    1fac:	0f 85 f6 01 00 00    	jne    0x21a8
    1fb2:	49 be e2 a5 55 55 55 	movabs r14,0x55555555a5e2
    1fb9:	55 00 00 
    1fbc:	49 ff c3             	inc    r11
    1fbf:	49 f7 c3 00 00 00 01 	test   r11,0x1000000
    1fc6:	0f 85 79 6e 00 00    	jne    0x8e45
    1fcc:	49 be e8 a5 55 55 55 	movabs r14,0x55555555a5e8
    1fd3:	55 00 00 
    1fd6:	41 8b 86 28 ba 01 00 	mov    eax,DWORD PTR [r14+0x1ba28]
    1fdd:	83 f8 01             	cmp    eax,0x1
    1fe0:	0f 8e 01 01 00 00    	jle    0x20e7
    1fe6:	49 be f3 a5 55 55 55 	movabs r14,0x55555555a5f3
    1fed:	55 00 00 
    1ff0:	41 8b 86 1d ba 01 00 	mov    eax,DWORD PTR [r14+0x1ba1d]
    1ff7:	41 0f af 84 24 c0 fe 	imul   eax,DWORD PTR [r12-0x140]
    1ffe:	ff ff 
    2000:	05 e8 03 00 00       	add    eax,0x3e8
    2005:	48 63 d0             	movsxd rdx,eax
    2008:	49 8b 84 24 c8 fe ff 	mov    rax,QWORD PTR [r12-0x138]
    200f:	ff 
    2010:	48 01 c2             	add    rdx,rax
    2013:	49 8d 84 24 20 ff ff 	lea    rax,[r12-0xe0]
    201a:	ff 
    201b:	48 89 d1             	mov    rcx,rdx
    201e:	49 be 1d a6 55 55 55 	movabs r14,0x55555555a61d
    2025:	55 00 00 
    2028:	49 8d 96 83 0b 04 00 	lea    rdx,[r14+0x40b83]
    202f:	49 be 24 a6 55 55 55 	movabs r14,0x55555555a624
    2036:	55 00 00 
    2039:	49 8d b6 4f 3d 01 00 	lea    rsi,[r14+0x13d4f]
    2040:	48 89 c7             	mov    rdi,rax
    2043:	b8 00 00 00 00       	mov    eax,0x0
    2048:	49 be 31 a6 55 55 55 	movabs r14,0x55555555a631
    204f:	55 00 00 
    2052:	4d 8d 6d f8          	lea    r13,[r13-0x8]
    2056:	4d 89 75 00          	mov    QWORD PTR [r13+0x0],r14
    205a:	e9 cf 6b 00 00       	jmp    0x8c2e
    205f:	49 be 38 a6 55 55 55 	movabs r14,0x55555555a638
    2066:	55 00 00 
    2069:	49 8b be 08 eb 03 00 	mov    rdi,QWORD PTR [r14+0x3eb08]
    2070:	49 be 3f a6 55 55 55 	movabs r14,0x55555555a63f
    2077:	55 00 00 
    207a:	49 8b 8e 41 0c 04 00 	mov    rcx,QWORD PTR [r14+0x40c41]
    2081:	49 be 46 a6 55 55 55 	movabs r14,0x55555555a646
    2088:	55 00 00 
    208b:	49 8b 96 42 0c 04 00 	mov    rdx,QWORD PTR [r14+0x40c42]
    2092:	49 be 4d a6 55 55 55 	movabs r14,0x55555555a64d
    2099:	55 00 00 
    209c:	49 8b b6 33 0c 04 00 	mov    rsi,QWORD PTR [r14+0x40c33]
    20a3:	49 8d 84 24 20 ff ff 	lea    rax,[r12-0xe0]
    20aa:	ff 
    20ab:	49 89 f8             	mov    r8,rdi
    20ae:	48 89 c7             	mov    rdi,rax
    20b1:	49 be 5f a6 55 55 55 	movabs r14,0x55555555a65f
    20b8:	55 00 00 
    20bb:	4d 8d 6d f8          	lea    r13,[r13-0x8]
    20bf:	4d 89 75 00          	mov    QWORD PTR [r13+0x0],r14
    20c3:	e9 4c 6b 00 00       	jmp    0x8c14
    20c8:	49 be 5f a6 55 55 55 	movabs r14,0x55555555a65f
    20cf:	55 00 00 
    20d2:	49 ff c3             	inc    r11
    20d5:	49 f7 c3 00 00 00 01 	test   r11,0x1000000
    20dc:	0f 85 63 6d 00 00    	jne    0x8e45
    20e2:	e9 c1 00 00 00       	jmp    0x21a8
    20e7:	49 be 68 a6 55 55 55 	movabs r14,0x55555555a668
    20ee:	55 00 00 
    20f1:	49 8d 86 38 0b 04 00 	lea    rax,[r14+0x40b38]
    20f8:	48 c7 c1 ff ff ff ff 	mov    rcx,0xffffffffffffffff
    20ff:	48 89 c2             	mov    rdx,rax
    2102:	b8 00 00 00 00       	mov    eax,0x0
    2107:	48 89 d7             	mov    rdi,rdx
    210a:	f2 ae                	repnz scas al,BYTE PTR es:[rdi]
    210c:	48 89 c8             	mov    rax,rcx
    210f:	48 f7 d0             	not    rax
    2112:	48 8d 50 ff          	lea    rdx,[rax-0x1]
    2116:	49 be 8d a6 55 55 55 	movabs r14,0x55555555a68d
    211d:	55 00 00 
    2120:	49 8d 86 13 0b 04 00 	lea    rax,[r14+0x40b13]
    2127:	48 01 d0             	add    rax,rdx
    212a:	c7 00 2e 74 69 66    	mov    DWORD PTR [rax],0x6669742e
    2130:	66 c7 40 04 66 00    	mov    WORD PTR [rax+0x4],0x66
    2136:	49 be a3 a6 55 55 55 	movabs r14,0x55555555a6a3
    213d:	55 00 00 
    2140:	49 8b b6 9d ea 03 00 	mov    rsi,QWORD PTR [r14+0x3ea9d]
    2147:	49 be aa a6 55 55 55 	movabs r14,0x55555555a6aa
    214e:	55 00 00 
    2151:	49 8b 8e d6 0b 04 00 	mov    rcx,QWORD PTR [r14+0x40bd6]
    2158:	49 be b1 a6 55 55 55 	movabs r14,0x55555555a6b1
    215f:	55 00 00 
    2162:	49 8b 96 d7 0b 04 00 	mov    rdx,QWORD PTR [r14+0x40bd7]
    2169:	49 be b8 a6 55 55 55 	movabs r14,0x55555555a6b8
    2170:	55 00 00 
    2173:	49 8b 86 c8 0b 04 00 	mov    rax,QWORD PTR [r14+0x40bc8]
    217a:	49 89 f0             	mov    r8,rsi
    217d:	48 89 c6             	mov    rsi,rax
    2180:	49 be c5 a6 55 55 55 	movabs r14,0x55555555a6c5
    2187:	55 00 00 
    218a:	49 8d be db 0a 04 00 	lea    rdi,[r14+0x40adb]
    2191:	49 be ca a6 55 55 55 	movabs r14,0x55555555a6ca
    2198:	55 00 00 
    219b:	4d 8d 6d f8          	lea    r13,[r13-0x8]
    219f:	4d 89 75 00          	mov    QWORD PTR [r13+0x0],r14
    21a3:	e9 6c 6a 00 00       	jmp    0x8c14
    21a8:	49 83 84 24 c8 fe ff 	add    QWORD PTR [r12-0x138],0x1
    21af:	ff 01 
    21b1:	49 be d2 a6 55 55 55 	movabs r14,0x55555555a6d2
    21b8:	55 00 00 
    21bb:	49 ff c3             	inc    r11
    21be:	49 f7 c3 00 00 00 01 	test   r11,0x1000000
    21c5:	0f 85 7a 6c 00 00    	jne    0x8e45
    21cb:	49 be d8 a6 55 55 55 	movabs r14,0x55555555a6d8
    21d2:	55 00 00 
    21d5:	41 8b 86 38 b9 01 00 	mov    eax,DWORD PTR [r14+0x1b938]
    21dc:	48 98                	cdqe   
    21de:	49 39 84 24 c8 fe ff 	cmp    QWORD PTR [r12-0x138],rax
    21e5:	ff 
    21e6:	0f 8c a2 f2 ff ff    	jl     0x148e
    21ec:	49 be e7 a6 55 55 55 	movabs r14,0x55555555a6e7
    21f3:	55 00 00 
    21f6:	49 ff c3             	inc    r11
    21f9:	49 f7 c3 00 00 00 01 	test   r11,0x1000000
    2200:	0f 85 3f 6c 00 00    	jne    0x8e45
    2206:	41 83 84 24 c0 fe ff 	add    DWORD PTR [r12-0x140],0x1
    220d:	ff 01 
    220f:	41 83 bc 24 c0 fe ff 	cmp    DWORD PTR [r12-0x140],0x2
    2216:	ff 02 
    2218:	0f 8e 45 f2 ff ff    	jle    0x1463
    221e:	49 be fb a6 55 55 55 	movabs r14,0x55555555a6fb
    2225:	55 00 00 
    2228:	49 ff c3             	inc    r11
    222b:	49 f7 c3 00 00 00 01 	test   r11,0x1000000
    2232:	0f 85 0d 6c 00 00    	jne    0x8e45
    2238:	90                   	nop
    2239:	49 8b 44 24 f8       	mov    rax,QWORD PTR [r12-0x8]
    223e:	4c 8b 75 80          	mov    r14,QWORD PTR [rbp-0x80]
    2242:	49 33 46 28          	xor    rax,QWORD PTR [r14+0x28]
    2246:	74 17                	je     0x225f
    2248:	49 be 10 a7 55 55 55 	movabs r14,0x55555555a710
    224f:	55 00 00 
    2252:	4d 8d 6d f8          	lea    r13,[r13-0x8]
    2256:	4d 89 75 00          	mov    QWORD PTR [r13+0x0],r14
    225a:	e9 07 6b 00 00       	jmp    0x8d66
    225f:	4d 89 e5             	mov    r13,r12
    2262:	4d 8b 65 00          	mov    r12,QWORD PTR [r13+0x0]
    2266:	4d 8d 6d 08          	lea    r13,[r13+0x8]
    226a:	4d 8b 75 00          	mov    r14,QWORD PTR [r13+0x0]
    226e:	4d 8d 6d 08          	lea    r13,[r13+0x8]
    2272:	e9 61 66 00 00       	jmp    0x88d8
    2277:	49 be e8 ff e4 f7 ff 	movabs r14,0x7ffff7e4ffe8
    227e:	7f 00 00 
    2281:	49 ff c3             	inc    r11
    2284:	49 f7 c3 00 00 00 01 	test   r11,0x1000000
    228b:	0f 85 b4 6b 00 00    	jne    0x8e45
    2291:	31 c0                	xor    eax,eax
    2293:	ba 01 00 00 00       	mov    edx,0x1
    2298:	f0 0f b1 17          	lock cmpxchg DWORD PTR [rdi],edx
    229c:	75 53                	jne    0x22f1
    229e:	49 be f9 ff e4 f7 ff 	movabs r14,0x7ffff7e4fff9
    22a5:	7f 00 00 
    22a8:	49 ff c3             	inc    r11
    22ab:	49 f7 c3 00 00 00 01 	test   r11,0x1000000
    22b2:	0f 85 8d 6b 00 00    	jne    0x8e45
    22b8:	8b 57 08             	mov    edx,DWORD PTR [rdi+0x8]
    22bb:	85 d2                	test   edx,edx
    22bd:	0f 85 7a 01 00 00    	jne    0x243d
    22c3:	4c 8b 75 80          	mov    r14,QWORD PTR [rbp-0x80]
    22c7:	41 8b 86 d0 02 00 00 	mov    eax,DWORD PTR [r14+0x2d0]
    22ce:	89 47 08             	mov    DWORD PTR [rdi+0x8],eax
    22d1:	83 47 0c 01          	add    DWORD PTR [rdi+0xc],0x1
    22d5:	90                   	nop
    22d6:	31 c0                	xor    eax,eax
    22d8:	49 83 c5 10          	add    r13,0x10
    22dc:	49 8b 5d 00          	mov    rbx,QWORD PTR [r13+0x0]
    22e0:	4d 8d 6d 08          	lea    r13,[r13+0x8]
    22e4:	4d 8b 75 00          	mov    r14,QWORD PTR [r13+0x0]
    22e8:	4d 8d 6d 08          	lea    r13,[r13+0x8]
    22ec:	e9 6e 63 00 00       	jmp    0x865f
    22f1:	8b 77 10             	mov    esi,DWORD PTR [rdi+0x10]
    22f4:	49 89 7d 08          	mov    QWORD PTR [r13+0x8],rdi
    22f8:	81 e6 80 00 00 00    	and    esi,0x80
    22fe:	49 be a3 00 e5 f7 ff 	movabs r14,0x7ffff7e500a3
    2305:	7f 00 00 
    2308:	4d 8d 6d f8          	lea    r13,[r13-0x8]
    230c:	4d 89 75 00          	mov    QWORD PTR [r13+0x0],r14
    2310:	e9 03 6a 00 00       	jmp    0x8d18
    2315:	49 be a3 00 e5 f7 ff 	movabs r14,0x7ffff7e500a3
    231c:	7f 00 00 
    231f:	49 ff c3             	inc    r11
    2322:	49 f7 c3 00 00 00 01 	test   r11,0x1000000
    2329:	0f 85 16 6b 00 00    	jne    0x8e45
    232f:	49 8b 7d 08          	mov    rdi,QWORD PTR [r13+0x8]
    2333:	e9 66 ff ff ff       	jmp    0x229e
    2338:	49 be b3 00 e5 f7 ff 	movabs r14,0x7ffff7e500b3
    233f:	7f 00 00 
    2342:	49 ff c3             	inc    r11
    2345:	49 f7 c3 00 00 00 01 	test   r11,0x1000000
    234c:	0f 85 f3 6a 00 00    	jne    0x8e45
    2352:	8b 47 08             	mov    eax,DWORD PTR [rdi+0x8]
    2355:	85 c0                	test   eax,eax
    2357:	0f 85 aa 01 00 00    	jne    0x2507
    235d:	49 be be 00 e5 f7 ff 	movabs r14,0x7ffff7e500be
    2364:	7f 00 00 
    2367:	49 ff c3             	inc    r11
    236a:	49 f7 c3 00 00 00 01 	test   r11,0x1000000
    2371:	0f 85 ce 6a 00 00    	jne    0x8e45
    2377:	c7 47 04 01 00 00 00 	mov    DWORD PTR [rdi+0x4],0x1
    237e:	e9 40 ff ff ff       	jmp    0x22c3
    2383:	49 be f5 00 e5 f7 ff 	movabs r14,0x7ffff7e500f5
    238a:	7f 00 00 
    238d:	49 ff c3             	inc    r11
    2390:	49 f7 c3 00 00 00 01 	test   r11,0x1000000
    2397:	0f 85 a8 6a 00 00    	jne    0x8e45
    239d:	83 7f 08 00          	cmp    DWORD PTR [rdi+0x8],0x0
    23a1:	0f 84 1c ff ff ff    	je     0x22c3
    23a7:	49 be 06 01 e5 f7 ff 	movabs r14,0x7ffff7e50106
    23ae:	7f 00 00 
    23b1:	49 8d 8e 8a c6 00 00 	lea    rcx,[r14+0xc68a]
    23b8:	ba 90 00 00 00       	mov    edx,0x90
    23bd:	49 be 12 01 e5 f7 ff 	movabs r14,0x7ffff7e50112
    23c4:	7f 00 00 
    23c7:	49 8d b6 e8 c4 00 00 	lea    rsi,[r14+0xc4e8]
    23ce:	49 be 19 01 e5 f7 ff 	movabs r14,0x7ffff7e50119
    23d5:	7f 00 00 
    23d8:	49 8d be 14 c5 00 00 	lea    rdi,[r14+0xc514]
    23df:	49 be 1e 01 e5 f7 ff 	movabs r14,0x7ffff7e5011e
    23e6:	7f 00 00 
    23e9:	4d 8d 6d f8          	lea    r13,[r13-0x8]
    23ed:	4d 89 75 00          	mov    QWORD PTR [r13+0x0],r14
    23f1:	e9 ee 68 00 00       	jmp    0x8ce4
    23f6:	8b 77 10             	mov    esi,DWORD PTR [rdi+0x10]
    23f9:	49 89 7d 08          	mov    QWORD PTR [r13+0x8],rdi
    23fd:	81 e6 80 00 00 00    	and    esi,0x80
    2403:	49 be 31 01 e5 f7 ff 	movabs r14,0x7ffff7e50131
    240a:	7f 00 00 
    240d:	4d 8d 6d f8          	lea    r13,[r13-0x8]
    2411:	4d 89 75 00          	mov    QWORD PTR [r13+0x0],r14
    2415:	e9 fe 68 00 00       	jmp    0x8d18
    241a:	49 be 31 01 e5 f7 ff 	movabs r14,0x7ffff7e50131
    2421:	7f 00 00 
    2424:	49 ff c3             	inc    r11
    2427:	49 f7 c3 00 00 00 01 	test   r11,0x1000000
    242e:	0f 85 11 6a 00 00    	jne    0x8e45
    2434:	49 8b 7d 08          	mov    rdi,QWORD PTR [r13+0x8]
    2438:	e9 fb fe ff ff       	jmp    0x2338
    243d:	49 be 4c 01 e5 f7 ff 	movabs r14,0x7ffff7e5014c
    2444:	7f 00 00 
    2447:	49 8d 8e 44 c6 00 00 	lea    rcx,[r14+0xc644]
    244e:	ba 51 00 00 00       	mov    edx,0x51
    2453:	49 be 58 01 e5 f7 ff 	movabs r14,0x7ffff7e50158
    245a:	7f 00 00 
    245d:	49 8d b6 a2 c4 00 00 	lea    rsi,[r14+0xc4a2]
    2464:	49 be 5f 01 e5 f7 ff 	movabs r14,0x7ffff7e5015f
    246b:	7f 00 00 
    246e:	49 8d be ce c4 00 00 	lea    rdi,[r14+0xc4ce]
    2475:	49 be 64 01 e5 f7 ff 	movabs r14,0x7ffff7e50164
    247c:	7f 00 00 
    247f:	4d 8d 6d f8          	lea    r13,[r13-0x8]
    2483:	4d 89 75 00          	mov    QWORD PTR [r13+0x0],r14
    2487:	e9 58 68 00 00       	jmp    0x8ce4
    248c:	49 be 64 01 e5 f7 ff 	movabs r14,0x7ffff7e50164
    2493:	7f 00 00 
    2496:	49 ff c3             	inc    r11
    2499:	49 f7 c3 00 00 00 01 	test   r11,0x1000000
    24a0:	0f 85 9f 69 00 00    	jne    0x8e45
    24a6:	4c 8b 75 80          	mov    r14,QWORD PTR [rbp-0x80]
    24aa:	41 8b 96 d0 02 00 00 	mov    edx,DWORD PTR [r14+0x2d0]
    24b1:	8b 47 10             	mov    eax,DWORD PTR [rdi+0x10]
    24b4:	83 e0 7f             	and    eax,0x7f
    24b7:	83 f8 02             	cmp    eax,0x2
    24ba:	0f 85 42 01 00 00    	jne    0x2602
    24c0:	49 be 77 01 e5 f7 ff 	movabs r14,0x7ffff7e50177
    24c7:	7f 00 00 
    24ca:	49 ff c3             	inc    r11
    24cd:	49 f7 c3 00 00 00 01 	test   r11,0x1000000
    24d4:	0f 85 6b 69 00 00    	jne    0x8e45
    24da:	39 57 08             	cmp    DWORD PTR [rdi+0x8],edx
    24dd:	0f 85 94 fd ff ff    	jne    0x2277
    24e3:	49 be 80 01 e5 f7 ff 	movabs r14,0x7ffff7e50180
    24ea:	7f 00 00 
    24ed:	49 ff c3             	inc    r11
    24f0:	49 f7 c3 00 00 00 01 	test   r11,0x1000000
    24f7:	0f 85 48 69 00 00    	jne    0x8e45
    24fd:	b8 23 00 00 00       	mov    eax,0x23
    2502:	e9 d1 fd ff ff       	jmp    0x22d8
    2507:	49 be 91 01 e5 f7 ff 	movabs r14,0x7ffff7e50191
    250e:	7f 00 00 
    2511:	49 8d 8e ff c5 00 00 	lea    rcx,[r14+0xc5ff]
    2518:	ba 75 00 00 00       	mov    edx,0x75
    251d:	49 be 9d 01 e5 f7 ff 	movabs r14,0x7ffff7e5019d
    2524:	7f 00 00 
    2527:	49 8d b6 5d c4 00 00 	lea    rsi,[r14+0xc45d]
    252e:	49 be a4 01 e5 f7 ff 	movabs r14,0x7ffff7e501a4
    2535:	7f 00 00 
    2538:	49 8d be 89 c4 00 00 	lea    rdi,[r14+0xc489]
    253f:	49 be a9 01 e5 f7 ff 	movabs r14,0x7ffff7e501a9
    2546:	7f 00 00 
    2549:	4d 8d 6d f8          	lea    r13,[r13-0x8]
    254d:	4d 89 75 00          	mov    QWORD PTR [r13+0x0],r14
    2551:	e9 8e 67 00 00       	jmp    0x8ce4
    2556:	0f bf 47 14          	movsx  eax,WORD PTR [rdi+0x14]
    255a:	49 be b4 01 e5 f7 ff 	movabs r14,0x7ffff7e501b4
    2561:	7f 00 00 
    2564:	41 0f bf 96 44 31 01 	movsx  edx,WORD PTR [r14+0x13144]
    256b:	00 
    256c:	b9 01 00 00 00       	mov    ecx,0x1
    2571:	8d 04 45 0a 00 00 00 	lea    eax,[rax*2+0xa]
    2578:	39 d0                	cmp    eax,edx
    257a:	0f 4e d0             	cmovle edx,eax
    257d:	31 db                	xor    ebx,ebx
    257f:	31 f6                	xor    esi,esi
    2581:	49 be c6 01 e5 f7 ff 	movabs r14,0x7ffff7e501c6
    2588:	7f 00 00 
    258b:	49 ff c3             	inc    r11
    258e:	49 f7 c3 00 00 00 01 	test   r11,0x1000000
    2595:	0f 85 aa 68 00 00    	jne    0x8e45
    259b:	89 d8                	mov    eax,ebx
    259d:	83 c3 01             	add    ebx,0x1
    25a0:	39 d0                	cmp    eax,edx
    25a2:	0f 8d a9 00 00 00    	jge    0x2651
    25a8:	49 be cf 01 e5 f7 ff 	movabs r14,0x7ffff7e501cf
    25af:	7f 00 00 
    25b2:	49 ff c3             	inc    r11
    25b5:	49 f7 c3 00 00 00 01 	test   r11,0x1000000
    25bc:	0f 85 83 68 00 00    	jne    0x8e45
    25c2:	90                   	nop
    25c3:	89 f0                	mov    eax,esi
    25c5:	f0 0f b1 0f          	lock cmpxchg DWORD PTR [rdi],ecx
    25c9:	75 b6                	jne    0x2581
    25cb:	49 be d9 01 e5 f7 ff 	movabs r14,0x7ffff7e501d9
    25d2:	7f 00 00 
    25d5:	49 ff c3             	inc    r11
    25d8:	49 f7 c3 00 00 00 01 	test   r11,0x1000000
    25df:	0f 85 60 68 00 00    	jne    0x8e45
    25e5:	0f bf 47 14          	movsx  eax,WORD PTR [rdi+0x14]
    25e9:	be 08 00 00 00       	mov    esi,0x8
    25ee:	29 c3                	sub    ebx,eax
    25f0:	89 c1                	mov    ecx,eax
    25f2:	89 d8                	mov    eax,ebx
    25f4:	99                   	cdq    
    25f5:	f7 fe                	idiv   esi
    25f7:	01 c8                	add    eax,ecx
    25f9:	66 89 47 14          	mov    WORD PTR [rdi+0x14],ax
    25fd:	e9 81 fd ff ff       	jmp    0x2383
    2602:	49 be fd 01 e5 f7 ff 	movabs r14,0x7ffff7e501fd
    2609:	7f 00 00 
    260c:	49 8d 8e 93 c5 00 00 	lea    rcx,[r14+0xc593]
    2613:	ba 95 00 00 00       	mov    edx,0x95
    2618:	49 be 09 02 e5 f7 ff 	movabs r14,0x7ffff7e50209
    261f:	7f 00 00 
    2622:	49 8d b6 f1 c3 00 00 	lea    rsi,[r14+0xc3f1]
    2629:	49 be 10 02 e5 f7 ff 	movabs r14,0x7ffff7e50210
    2630:	7f 00 00 
    2633:	49 8d be b0 c3 00 00 	lea    rdi,[r14+0xc3b0]
    263a:	49 be 15 02 e5 f7 ff 	movabs r14,0x7ffff7e50215
    2641:	7f 00 00 
    2644:	4d 8d 6d f8          	lea    r13,[r13-0x8]
    2648:	4d 89 75 00          	mov    QWORD PTR [r13+0x0],r14
    264c:	e9 93 66 00 00       	jmp    0x8ce4
    2651:	49 be 15 02 e5 f7 ff 	movabs r14,0x7ffff7e50215
    2658:	7f 00 00 
    265b:	49 ff c3             	inc    r11
    265e:	49 f7 c3 00 00 00 01 	test   r11,0x1000000
    2665:	0f 85 da 67 00 00    	jne    0x8e45
    266b:	31 c0                	xor    eax,eax
    266d:	ba 01 00 00 00       	mov    edx,0x1
    2672:	f0 0f b1 17          	lock cmpxchg DWORD PTR [rdi],edx
    2676:	0f 84 4f ff ff ff    	je     0x25cb
    267c:	8b 77 10             	mov    esi,DWORD PTR [rdi+0x10]
    267f:	49 89 7d 08          	mov    QWORD PTR [r13+0x8],rdi
    2683:	81 e6 80 00 00 00    	and    esi,0x80
    2689:	49 be 35 02 e5 f7 ff 	movabs r14,0x7ffff7e50235
    2690:	7f 00 00 
    2693:	4d 8d 6d f8          	lea    r13,[r13-0x8]
    2697:	4d 89 75 00          	mov    QWORD PTR [r13+0x0],r14
    269b:	e9 78 66 00 00       	jmp    0x8d18
    26a0:	49 be 35 02 e5 f7 ff 	movabs r14,0x7ffff7e50235
    26a7:	7f 00 00 
    26aa:	49 ff c3             	inc    r11
    26ad:	49 f7 c3 00 00 00 01 	test   r11,0x1000000
    26b4:	0f 85 8b 67 00 00    	jne    0x8e45
    26ba:	49 8b 7d 08          	mov    rdi,QWORD PTR [r13+0x8]
    26be:	e9 08 ff ff ff       	jmp    0x25cb
    26c3:	49 be 00 13 e5 f7 ff 	movabs r14,0x7ffff7e51300
    26ca:	7f 00 00 
    26cd:	49 ff c3             	inc    r11
    26d0:	49 f7 c3 00 00 00 01 	test   r11,0x1000000
    26d7:	0f 85 68 67 00 00    	jne    0x8e45
    26dd:	8b 47 10             	mov    eax,DWORD PTR [rdi+0x10]
    26e0:	83 e0 7f             	and    eax,0x7f
    26e3:	83 e8 10             	sub    eax,0x10
    26e6:	83 f8 33             	cmp    eax,0x33
    26e9:	77 3a                	ja     0x2725
    26eb:	49 be 0e 13 e5 f7 ff 	movabs r14,0x7ffff7e5130e
    26f2:	7f 00 00 
    26f5:	49 ff c3             	inc    r11
    26f8:	49 f7 c3 00 00 00 01 	test   r11,0x1000000
    26ff:	0f 85 40 67 00 00    	jne    0x8e45
    2705:	49 be 15 13 e5 f7 ff 	movabs r14,0x7ffff7e51315
    270c:	7f 00 00 
    270f:	49 8d 96 17 b9 00 00 	lea    rdx,[r14+0xb917]
    2716:	48 63 04 82          	movsxd rax,DWORD PTR [rdx+rax*4]
    271a:	48 01 d0             	add    rax,rdx
    271d:	49 89 c6             	mov    r14,rax
    2720:	e9 28 62 00 00       	jmp    0x894d
    2725:	b8 16 00 00 00       	mov    eax,0x16
    272a:	4d 8b 75 00          	mov    r14,QWORD PTR [r13+0x0]
    272e:	4d 8d 6d 08          	lea    r13,[r13+0x8]
    2732:	e9 ce 61 00 00       	jmp    0x8905
    2737:	49 be a0 16 e5 f7 ff 	movabs r14,0x7ffff7e516a0
    273e:	7f 00 00 
    2741:	49 ff c3             	inc    r11
    2744:	49 f7 c3 00 00 00 01 	test   r11,0x1000000
    274b:	0f 85 f4 66 00 00    	jne    0x8e45
    2751:	90                   	nop
    2752:	8b 47 10             	mov    eax,DWORD PTR [rdi+0x10]
    2755:	89 c2                	mov    edx,eax
    2757:	81 e2 7f 01 00 00    	and    edx,0x17f
    275d:	83 e0 7c             	and    eax,0x7c
    2760:	0f 85 a5 00 00 00    	jne    0x280b
    2766:	49 be b4 16 e5 f7 ff 	movabs r14,0x7ffff7e516b4
    276d:	7f 00 00 
    2770:	49 ff c3             	inc    r11
    2773:	49 f7 c3 00 00 00 01 	test   r11,0x1000000
    277a:	0f 85 c5 66 00 00    	jne    0x8e45
    2780:	41 89 c0             	mov    r8d,eax
    2783:	85 d2                	test   edx,edx
    2785:	0f 85 9f 00 00 00    	jne    0x282a
    278b:	49 be bb 16 e5 f7 ff 	movabs r14,0x7ffff7e516bb
    2792:	7f 00 00 
    2795:	49 ff c3             	inc    r11
    2798:	49 f7 c3 00 00 00 01 	test   r11,0x1000000
    279f:	0f 85 a0 66 00 00    	jne    0x8e45
    27a5:	c7 47 08 00 00 00 00 	mov    DWORD PTR [rdi+0x8],0x0
    27ac:	85 f6                	test   esi,esi
    27ae:	75 3b                	jne    0x27eb
    27b0:	49 be c6 16 e5 f7 ff 	movabs r14,0x7ffff7e516c6
    27b7:	7f 00 00 
    27ba:	49 ff c3             	inc    r11
    27bd:	49 f7 c3 00 00 00 01 	test   r11,0x1000000
    27c4:	0f 85 7b 66 00 00    	jne    0x8e45
    27ca:	8b 77 10             	mov    esi,DWORD PTR [rdi+0x10]
    27cd:	31 c0                	xor    eax,eax
    27cf:	87 07                	xchg   DWORD PTR [rdi],eax
    27d1:	83 f8 01             	cmp    eax,0x1
    27d4:	0f 8f 9a 00 00 00    	jg     0x2874
    27da:	90                   	nop
    27db:	44 89 c0             	mov    eax,r8d
    27de:	4d 8b 75 00          	mov    r14,QWORD PTR [r13+0x0]
    27e2:	4d 8d 6d 08          	lea    r13,[r13+0x8]
    27e6:	e9 af 62 00 00       	jmp    0x8a9a
    27eb:	49 be e0 16 e5 f7 ff 	movabs r14,0x7ffff7e516e0
    27f2:	7f 00 00 
    27f5:	49 ff c3             	inc    r11
    27f8:	49 f7 c3 00 00 00 01 	test   r11,0x1000000
    27ff:	0f 85 40 66 00 00    	jne    0x8e45
    2805:	83 6f 0c 01          	sub    DWORD PTR [rdi+0xc],0x1
    2809:	eb a5                	jmp    0x27b0
    280b:	49 be f0 16 e5 f7 ff 	movabs r14,0x7ffff7e516f0
    2812:	7f 00 00 
    2815:	49 ff c3             	inc    r11
    2818:	49 f7 c3 00 00 00 01 	test   r11,0x1000000
    281f:	0f 85 20 66 00 00    	jne    0x8e45
    2825:	e9 99 fe ff ff       	jmp    0x26c3
    282a:	49 be f8 16 e5 f7 ff 	movabs r14,0x7ffff7e516f8
    2831:	7f 00 00 
    2834:	49 ff c3             	inc    r11
    2837:	49 f7 c3 00 00 00 01 	test   r11,0x1000000
    283e:	0f 85 01 66 00 00    	jne    0x8e45
    2844:	81 fa 00 01 00 00    	cmp    edx,0x100
    284a:	75 6d                	jne    0x28b9
    284c:	49 be 00 17 e5 f7 ff 	movabs r14,0x7ffff7e51700
    2853:	7f 00 00 
    2856:	49 ff c3             	inc    r11
    2859:	49 f7 c3 00 00 00 01 	test   r11,0x1000000
    2860:	0f 85 df 65 00 00    	jne    0x8e45
    2866:	8b 77 10             	mov    esi,DWORD PTR [rdi+0x10]
    2869:	81 e6 80 00 00 00    	and    esi,0x80
    286f:	e9 ee 5c 00 00       	jmp    0x8562
    2874:	81 e6 80 00 00 00    	and    esi,0x80
    287a:	45 31 d2             	xor    r10d,r10d
    287d:	ba 01 00 00 00       	mov    edx,0x1
    2882:	b8 ca 00 00 00       	mov    eax,0xca
    2887:	40 80 f6 81          	xor    sil,0x81
    288b:	49 be 27 17 e5 f7 ff 	movabs r14,0x7ffff7e51727
    2892:	7f 00 00 
    2895:	e9 90 65 00 00       	jmp    0x8e2a
    289a:	49 be 29 17 e5 f7 ff 	movabs r14,0x7ffff7e51729
    28a1:	7f 00 00 
    28a4:	49 ff c3             	inc    r11
    28a7:	49 f7 c3 00 00 00 01 	test   r11,0x1000000
    28ae:	0f 85 91 65 00 00    	jne    0x8e45
    28b4:	e9 21 ff ff ff       	jmp    0x27da
    28b9:	49 be 2b 17 e5 f7 ff 	movabs r14,0x7ffff7e5172b
    28c0:	7f 00 00 
    28c3:	49 ff c3             	inc    r11
    28c6:	49 f7 c3 00 00 00 01 	test   r11,0x1000000
    28cd:	0f 85 72 65 00 00    	jne    0x8e45
    28d3:	8b 47 10             	mov    eax,DWORD PTR [rdi+0x10]
    28d6:	83 e0 7f             	and    eax,0x7f
    28d9:	83 f8 01             	cmp    eax,0x1
    28dc:	0f 85 92 00 00 00    	jne    0x2974
    28e2:	49 be 36 17 e5 f7 ff 	movabs r14,0x7ffff7e51736
    28e9:	7f 00 00 
    28ec:	49 ff c3             	inc    r11
    28ef:	49 f7 c3 00 00 00 01 	test   r11,0x1000000
    28f6:	0f 85 49 65 00 00    	jne    0x8e45
    28fc:	4c 8b 75 80          	mov    r14,QWORD PTR [rbp-0x80]
    2900:	41 8b 86 d0 02 00 00 	mov    eax,DWORD PTR [r14+0x2d0]
    2907:	39 47 08             	cmp    DWORD PTR [rdi+0x8],eax
    290a:	74 25                	je     0x2931
    290c:	49 be 43 17 e5 f7 ff 	movabs r14,0x7ffff7e51743
    2913:	7f 00 00 
    2916:	49 ff c3             	inc    r11
    2919:	49 f7 c3 00 00 00 01 	test   r11,0x1000000
    2920:	0f 85 1f 65 00 00    	jne    0x8e45
    2926:	41 b8 01 00 00 00    	mov    r8d,0x1
    292c:	e9 aa fe ff ff       	jmp    0x27db
    2931:	49 be 4b 17 e5 f7 ff 	movabs r14,0x7ffff7e5174b
    2938:	7f 00 00 
    293b:	49 ff c3             	inc    r11
    293e:	49 f7 c3 00 00 00 01 	test   r11,0x1000000
    2945:	0f 85 fa 64 00 00    	jne    0x8e45
    294b:	83 6f 04 01          	sub    DWORD PTR [rdi+0x4],0x1
    294f:	0f 85 86 fe ff ff    	jne    0x27db
    2955:	49 be 51 17 e5 f7 ff 	movabs r14,0x7ffff7e51751
    295c:	7f 00 00 
    295f:	49 ff c3             	inc    r11
    2962:	49 f7 c3 00 00 00 01 	test   r11,0x1000000
    2969:	0f 85 d6 64 00 00    	jne    0x8e45
    296f:	e9 17 fe ff ff       	jmp    0x278b
    2974:	49 be 56 17 e5 f7 ff 	movabs r14,0x7ffff7e51756
    297b:	7f 00 00 
    297e:	49 ff c3             	inc    r11
    2981:	49 f7 c3 00 00 00 01 	test   r11,0x1000000
    2988:	0f 85 b7 64 00 00    	jne    0x8e45
    298e:	8b 47 10             	mov    eax,DWORD PTR [rdi+0x10]
    2991:	83 e0 7f             	and    eax,0x7f
    2994:	83 f8 03             	cmp    eax,0x3
    2997:	0f 84 ee fd ff ff    	je     0x278b
    299d:	49 be 65 17 e5 f7 ff 	movabs r14,0x7ffff7e51765
    29a4:	7f 00 00 
    29a7:	49 ff c3             	inc    r11
    29aa:	49 f7 c3 00 00 00 01 	test   r11,0x1000000
    29b1:	0f 85 8e 64 00 00    	jne    0x8e45
    29b7:	83 fa 02             	cmp    edx,0x2
    29ba:	75 70                	jne    0x2a2c
    29bc:	49 be 6a 17 e5 f7 ff 	movabs r14,0x7ffff7e5176a
    29c3:	7f 00 00 
    29c6:	49 ff c3             	inc    r11
    29c9:	49 f7 c3 00 00 00 01 	test   r11,0x1000000
    29d0:	0f 85 6f 64 00 00    	jne    0x8e45
    29d6:	4c 8b 75 80          	mov    r14,QWORD PTR [rbp-0x80]
    29da:	41 8b 86 d0 02 00 00 	mov    eax,DWORD PTR [r14+0x2d0]
    29e1:	39 47 08             	cmp    DWORD PTR [rdi+0x8],eax
    29e4:	0f 85 22 ff ff ff    	jne    0x290c
    29ea:	49 be 77 17 e5 f7 ff 	movabs r14,0x7ffff7e51777
    29f1:	7f 00 00 
    29f4:	49 ff c3             	inc    r11
    29f7:	49 f7 c3 00 00 00 01 	test   r11,0x1000000
    29fe:	0f 85 41 64 00 00    	jne    0x8e45
    2a04:	83 3f 00             	cmp    DWORD PTR [rdi],0x0
    2a07:	0f 84 ff fe ff ff    	je     0x290c
    2a0d:	49 be 7c 17 e5 f7 ff 	movabs r14,0x7ffff7e5177c
    2a14:	7f 00 00 
    2a17:	49 ff c3             	inc    r11
    2a1a:	49 f7 c3 00 00 00 01 	test   r11,0x1000000
    2a21:	0f 85 1e 64 00 00    	jne    0x8e45
    2a27:	e9 5f fd ff ff       	jmp    0x278b
    2a2c:	4d 8d 6d f8          	lea    r13,[r13-0x8]
    2a30:	49 89 45 00          	mov    QWORD PTR [r13+0x0],rax
    2a34:	49 be 89 17 e5 f7 ff 	movabs r14,0x7ffff7e51789
    2a3b:	7f 00 00 
    2a3e:	49 8d 8e 27 b6 00 00 	lea    rcx,[r14+0xb627]
    2a45:	ba 58 00 00 00       	mov    edx,0x58
    2a4a:	49 be 95 17 e5 f7 ff 	movabs r14,0x7ffff7e51795
    2a51:	7f 00 00 
    2a54:	49 8d b6 ff b5 00 00 	lea    rsi,[r14+0xb5ff]
    2a5b:	49 be 9c 17 e5 f7 ff 	movabs r14,0x7ffff7e5179c
    2a62:	7f 00 00 
    2a65:	49 8d be 6c b4 00 00 	lea    rdi,[r14+0xb46c]
    2a6c:	49 be a1 17 e5 f7 ff 	movabs r14,0x7ffff7e517a1
    2a73:	7f 00 00 
    2a76:	4d 8d 6d f8          	lea    r13,[r13-0x8]
    2a7a:	4d 89 75 00          	mov    QWORD PTR [r13+0x0],r14
    2a7e:	e9 61 62 00 00       	jmp    0x8ce4
    2a83:	90                   	nop
    2a84:	90                   	nop
    2a85:	49 be b0 17 e5 f7 ff 	movabs r14,0x7ffff7e517b0
    2a8c:	7f 00 00 
    2a8f:	49 ff c3             	inc    r11
    2a92:	49 f7 c3 00 00 00 01 	test   r11,0x1000000
    2a99:	0f 85 a6 63 00 00    	jne    0x8e45
    2a9f:	90                   	nop
    2aa0:	8b 47 10             	mov    eax,DWORD PTR [rdi+0x10]
    2aa3:	89 c2                	mov    edx,eax
    2aa5:	81 e2 7f 01 00 00    	and    edx,0x17f
    2aab:	83 e0 7c             	and    eax,0x7c
    2aae:	75 63                	jne    0x2b13
    2ab0:	49 be c4 17 e5 f7 ff 	movabs r14,0x7ffff7e517c4
    2ab7:	7f 00 00 
    2aba:	49 ff c3             	inc    r11
    2abd:	49 f7 c3 00 00 00 01 	test   r11,0x1000000
    2ac4:	0f 85 7b 63 00 00    	jne    0x8e45
    2aca:	41 89 c0             	mov    r8d,eax
    2acd:	85 d2                	test   edx,edx
    2acf:	75 66                	jne    0x2b37
    2ad1:	49 be cb 17 e5 f7 ff 	movabs r14,0x7ffff7e517cb
    2ad8:	7f 00 00 
    2adb:	49 ff c3             	inc    r11
    2ade:	49 f7 c3 00 00 00 01 	test   r11,0x1000000
    2ae5:	0f 85 5a 63 00 00    	jne    0x8e45
    2aeb:	83 6f 0c 01          	sub    DWORD PTR [rdi+0xc],0x1
    2aef:	31 c0                	xor    eax,eax
    2af1:	c7 47 08 00 00 00 00 	mov    DWORD PTR [rdi+0x8],0x0
    2af8:	8b 77 10             	mov    esi,DWORD PTR [rdi+0x10]
    2afb:	87 07                	xchg   DWORD PTR [rdi],eax
    2afd:	83 f8 01             	cmp    eax,0x1
    2b00:	7f 7f                	jg     0x2b81
    2b02:	90                   	nop
    2b03:	44 89 c0             	mov    eax,r8d
    2b06:	4d 8b 75 00          	mov    r14,QWORD PTR [r13+0x0]
    2b0a:	4d 8d 6d 08          	lea    r13,[r13+0x8]
    2b0e:	e9 f7 5e 00 00       	jmp    0x8a0a
    2b13:	49 be f0 17 e5 f7 ff 	movabs r14,0x7ffff7e517f0
    2b1a:	7f 00 00 
    2b1d:	49 ff c3             	inc    r11
    2b20:	49 f7 c3 00 00 00 01 	test   r11,0x1000000
    2b27:	0f 85 18 63 00 00    	jne    0x8e45
    2b2d:	be 01 00 00 00       	mov    esi,0x1
    2b32:	e9 8c fb ff ff       	jmp    0x26c3
    2b37:	49 be 00 18 e5 f7 ff 	movabs r14,0x7ffff7e51800
    2b3e:	7f 00 00 
    2b41:	49 ff c3             	inc    r11
    2b44:	49 f7 c3 00 00 00 01 	test   r11,0x1000000
    2b4b:	0f 85 f4 62 00 00    	jne    0x8e45
    2b51:	81 fa 00 01 00 00    	cmp    edx,0x100
    2b57:	75 6d                	jne    0x2bc6
    2b59:	49 be 08 18 e5 f7 ff 	movabs r14,0x7ffff7e51808
    2b60:	7f 00 00 
    2b63:	49 ff c3             	inc    r11
    2b66:	49 f7 c3 00 00 00 01 	test   r11,0x1000000
    2b6d:	0f 85 d2 62 00 00    	jne    0x8e45
    2b73:	8b 77 10             	mov    esi,DWORD PTR [rdi+0x10]
    2b76:	81 e6 80 00 00 00    	and    esi,0x80
    2b7c:	e9 e1 59 00 00       	jmp    0x8562
    2b81:	81 e6 80 00 00 00    	and    esi,0x80
    2b87:	45 31 d2             	xor    r10d,r10d
    2b8a:	ba 01 00 00 00       	mov    edx,0x1
    2b8f:	b8 ca 00 00 00       	mov    eax,0xca
    2b94:	40 80 f6 81          	xor    sil,0x81
    2b98:	49 be 37 18 e5 f7 ff 	movabs r14,0x7ffff7e51837
    2b9f:	7f 00 00 
    2ba2:	e9 83 62 00 00       	jmp    0x8e2a
    2ba7:	49 be 39 18 e5 f7 ff 	movabs r14,0x7ffff7e51839
    2bae:	7f 00 00 
    2bb1:	49 ff c3             	inc    r11
    2bb4:	49 f7 c3 00 00 00 01 	test   r11,0x1000000
    2bbb:	0f 85 84 62 00 00    	jne    0x8e45
    2bc1:	e9 3c ff ff ff       	jmp    0x2b02
    2bc6:	49 be 3b 18 e5 f7 ff 	movabs r14,0x7ffff7e5183b
    2bcd:	7f 00 00 
    2bd0:	49 ff c3             	inc    r11
    2bd3:	49 f7 c3 00 00 00 01 	test   r11,0x1000000
    2bda:	0f 85 65 62 00 00    	jne    0x8e45
    2be0:	8b 47 10             	mov    eax,DWORD PTR [rdi+0x10]
    2be3:	83 e0 7f             	and    eax,0x7f
    2be6:	83 f8 01             	cmp    eax,0x1
    2be9:	0f 85 92 00 00 00    	jne    0x2c81
    2bef:	49 be 46 18 e5 f7 ff 	movabs r14,0x7ffff7e51846
    2bf6:	7f 00 00 
    2bf9:	49 ff c3             	inc    r11
    2bfc:	49 f7 c3 00 00 00 01 	test   r11,0x1000000
    2c03:	0f 85 3c 62 00 00    	jne    0x8e45
    2c09:	4c 8b 75 80          	mov    r14,QWORD PTR [rbp-0x80]
    2c0d:	41 8b 86 d0 02 00 00 	mov    eax,DWORD PTR [r14+0x2d0]
    2c14:	39 47 08             	cmp    DWORD PTR [rdi+0x8],eax
    2c17:	74 25                	je     0x2c3e
    2c19:	49 be 53 18 e5 f7 ff 	movabs r14,0x7ffff7e51853
    2c20:	7f 00 00 
    2c23:	49 ff c3             	inc    r11
    2c26:	49 f7 c3 00 00 00 01 	test   r11,0x1000000
    2c2d:	0f 85 12 62 00 00    	jne    0x8e45
    2c33:	41 b8 01 00 00 00    	mov    r8d,0x1
    2c39:	e9 c5 fe ff ff       	jmp    0x2b03
    2c3e:	49 be 5b 18 e5 f7 ff 	movabs r14,0x7ffff7e5185b
    2c45:	7f 00 00 
    2c48:	49 ff c3             	inc    r11
    2c4b:	49 f7 c3 00 00 00 01 	test   r11,0x1000000
    2c52:	0f 85 ed 61 00 00    	jne    0x8e45
    2c58:	83 6f 04 01          	sub    DWORD PTR [rdi+0x4],0x1
    2c5c:	0f 85 a1 fe ff ff    	jne    0x2b03
    2c62:	49 be 61 18 e5 f7 ff 	movabs r14,0x7ffff7e51861
    2c69:	7f 00 00 
    2c6c:	49 ff c3             	inc    r11
    2c6f:	49 f7 c3 00 00 00 01 	test   r11,0x1000000
    2c76:	0f 85 c9 61 00 00    	jne    0x8e45
    2c7c:	e9 50 fe ff ff       	jmp    0x2ad1
    2c81:	49 be 66 18 e5 f7 ff 	movabs r14,0x7ffff7e51866
    2c88:	7f 00 00 
    2c8b:	49 ff c3             	inc    r11
    2c8e:	49 f7 c3 00 00 00 01 	test   r11,0x1000000
    2c95:	0f 85 aa 61 00 00    	jne    0x8e45
    2c9b:	8b 47 10             	mov    eax,DWORD PTR [rdi+0x10]
    2c9e:	83 e0 7f             	and    eax,0x7f
    2ca1:	83 f8 03             	cmp    eax,0x3
    2ca4:	0f 84 27 fe ff ff    	je     0x2ad1
    2caa:	49 be 75 18 e5 f7 ff 	movabs r14,0x7ffff7e51875
    2cb1:	7f 00 00 
    2cb4:	49 ff c3             	inc    r11
    2cb7:	49 f7 c3 00 00 00 01 	test   r11,0x1000000
    2cbe:	0f 85 81 61 00 00    	jne    0x8e45
    2cc4:	83 fa 02             	cmp    edx,0x2
    2cc7:	75 70                	jne    0x2d39
    2cc9:	49 be 7a 18 e5 f7 ff 	movabs r14,0x7ffff7e5187a
    2cd0:	7f 00 00 
    2cd3:	49 ff c3             	inc    r11
    2cd6:	49 f7 c3 00 00 00 01 	test   r11,0x1000000
    2cdd:	0f 85 62 61 00 00    	jne    0x8e45
    2ce3:	4c 8b 75 80          	mov    r14,QWORD PTR [rbp-0x80]
    2ce7:	41 8b 86 d0 02 00 00 	mov    eax,DWORD PTR [r14+0x2d0]
    2cee:	39 47 08             	cmp    DWORD PTR [rdi+0x8],eax
    2cf1:	0f 85 22 ff ff ff    	jne    0x2c19
    2cf7:	49 be 87 18 e5 f7 ff 	movabs r14,0x7ffff7e51887
    2cfe:	7f 00 00 
    2d01:	49 ff c3             	inc    r11
    2d04:	49 f7 c3 00 00 00 01 	test   r11,0x1000000
    2d0b:	0f 85 34 61 00 00    	jne    0x8e45
    2d11:	83 3f 00             	cmp    DWORD PTR [rdi],0x0
    2d14:	0f 84 ff fe ff ff    	je     0x2c19
    2d1a:	49 be 8c 18 e5 f7 ff 	movabs r14,0x7ffff7e5188c
    2d21:	7f 00 00 
    2d24:	49 ff c3             	inc    r11
    2d27:	49 f7 c3 00 00 00 01 	test   r11,0x1000000
    2d2e:	0f 85 11 61 00 00    	jne    0x8e45
    2d34:	e9 98 fd ff ff       	jmp    0x2ad1
    2d39:	4d 8d 6d f8          	lea    r13,[r13-0x8]
    2d3d:	49 89 45 00          	mov    QWORD PTR [r13+0x0],rax
    2d41:	49 be 99 18 e5 f7 ff 	movabs r14,0x7ffff7e51899
    2d48:	7f 00 00 
    2d4b:	49 8d 8e 17 b5 00 00 	lea    rcx,[r14+0xb517]
    2d52:	ba 58 00 00 00       	mov    edx,0x58
    2d57:	49 be a5 18 e5 f7 ff 	movabs r14,0x7ffff7e518a5
    2d5e:	7f 00 00 
    2d61:	49 8d b6 ef b4 00 00 	lea    rsi,[r14+0xb4ef]
    2d68:	49 be ac 18 e5 f7 ff 	movabs r14,0x7ffff7e518ac
    2d6f:	7f 00 00 
    2d72:	49 8d be 5c b3 00 00 	lea    rdi,[r14+0xb35c]
    2d79:	49 be b1 18 e5 f7 ff 	movabs r14,0x7ffff7e518b1
    2d80:	7f 00 00 
    2d83:	4d 8d 6d f8          	lea    r13,[r13-0x8]
    2d87:	4d 89 75 00          	mov    QWORD PTR [r13+0x0],r14
    2d8b:	e9 54 5f 00 00       	jmp    0x8ce4
    2d90:	90                   	nop
    2d91:	90                   	nop
    2d92:	49 be c0 18 e5 f7 ff 	movabs r14,0x7ffff7e518c0
    2d99:	7f 00 00 
    2d9c:	49 ff c3             	inc    r11
    2d9f:	49 f7 c3 00 00 00 01 	test   r11,0x1000000
    2da6:	0f 85 99 60 00 00    	jne    0x8e45
    2dac:	4d 8d 6d f8          	lea    r13,[r13-0x8]
    2db0:	4c 8b 75 b0          	mov    r14,QWORD PTR [rbp-0x50]
    2db4:	4d 89 75 00          	mov    QWORD PTR [r13+0x0],r14
    2db8:	4d 8d 6d f8          	lea    r13,[r13-0x8]
    2dbc:	4c 8b 7d a8          	mov    r15,QWORD PTR [rbp-0x58]
    2dc0:	4d 89 7d 00          	mov    QWORD PTR [r13+0x0],r15
    2dc4:	4d 8d 6d f8          	lea    r13,[r13-0x8]
    2dc8:	4c 89 75 b0          	mov    QWORD PTR [rbp-0x50],r14
    2dcc:	4c 8b 75 a0          	mov    r14,QWORD PTR [rbp-0x60]
    2dd0:	4d 89 75 00          	mov    QWORD PTR [r13+0x0],r14
    2dd4:	4d 8d 6d f8          	lea    r13,[r13-0x8]
    2dd8:	4c 89 75 a0          	mov    QWORD PTR [rbp-0x60],r14
    2ddc:	4c 8b 75 98          	mov    r14,QWORD PTR [rbp-0x68]
    2de0:	4d 89 75 00          	mov    QWORD PTR [r13+0x0],r14
    2de4:	4d 8d 6d f8          	lea    r13,[r13-0x8]
    2de8:	4d 89 65 00          	mov    QWORD PTR [r13+0x0],r12
    2dec:	49 89 fc             	mov    r12,rdi
    2def:	4d 8d 6d f8          	lea    r13,[r13-0x8]
    2df3:	49 89 5d 00          	mov    QWORD PTR [r13+0x0],rbx
    2df7:	49 83 ed 28          	sub    r13,0x28
    2dfb:	4c 89 75 98          	mov    QWORD PTR [rbp-0x68],r14
    2dff:	4c 8b 75 80          	mov    r14,QWORD PTR [rbp-0x80]
    2e03:	49 8b 46 28          	mov    rax,QWORD PTR [r14+0x28]
    2e07:	49 89 45 18          	mov    QWORD PTR [r13+0x18],rax
    2e0b:	31 c0                	xor    eax,eax
    2e0d:	4c 89 7d a8          	mov    QWORD PTR [rbp-0x58],r15
    2e11:	4c 8b 7d 98          	mov    r15,QWORD PTR [rbp-0x68]
    2e15:	45 8b be d0 02 00 00 	mov    r15d,DWORD PTR [r14+0x2d0]
    2e1c:	8b 57 10             	mov    edx,DWORD PTR [rdi+0x10]
    2e1f:	4c 89 75 80          	mov    QWORD PTR [rbp-0x80],r14
    2e23:	4c 8b 75 a0          	mov    r14,QWORD PTR [rbp-0x60]
    2e27:	4c 8d 77 10          	lea    r14,[rdi+0x10]
    2e2b:	89 d0                	mov    eax,edx
    2e2d:	83 e0 7f             	and    eax,0x7f
    2e30:	83 f8 33             	cmp    eax,0x33
    2e33:	4c 89 7d 98          	mov    QWORD PTR [rbp-0x68],r15
    2e37:	4c 89 75 a0          	mov    QWORD PTR [rbp-0x60],r14
    2e3b:	0f 8f 43 04 00 00    	jg     0x3284
    2e41:	49 be ff 18 e5 f7 ff 	movabs r14,0x7ffff7e518ff
    2e48:	7f 00 00 
    2e4b:	49 ff c3             	inc    r11
    2e4e:	49 f7 c3 00 00 00 01 	test   r11,0x1000000
    2e55:	0f 85 ea 5f 00 00    	jne    0x8e45
    2e5b:	83 f8 2f             	cmp    eax,0x2f
    2e5e:	0f 8f 2f 02 00 00    	jg     0x3093
    2e64:	49 be 08 19 e5 f7 ff 	movabs r14,0x7ffff7e51908
    2e6b:	7f 00 00 
    2e6e:	49 ff c3             	inc    r11
    2e71:	49 f7 c3 00 00 00 01 	test   r11,0x1000000
    2e78:	0f 85 c7 5f 00 00    	jne    0x8e45
    2e7e:	83 f8 13             	cmp    eax,0x13
    2e81:	0f 8f e6 01 00 00    	jg     0x306d
    2e87:	49 be 11 19 e5 f7 ff 	movabs r14,0x7ffff7e51911
    2e8e:	7f 00 00 
    2e91:	49 ff c3             	inc    r11
    2e94:	49 f7 c3 00 00 00 01 	test   r11,0x1000000
    2e9b:	0f 85 a4 5f 00 00    	jne    0x8e45
    2ea1:	83 e2 70             	and    edx,0x70
    2ea4:	0f 84 1d 01 00 00    	je     0x2fc7
    2eaa:	4c 8d 47 20          	lea    r8,[rdi+0x20]
    2eae:	4c 8b 75 80          	mov    r14,QWORD PTR [rbp-0x80]
    2eb2:	4d 89 86 f0 02 00 00 	mov    QWORD PTR [r14+0x2f0],r8
    2eb9:	4c 8b 7d 98          	mov    r15,QWORD PTR [rbp-0x68]
    2ebd:	45 89 f9             	mov    r9d,r15d
    2ec0:	8b 17                	mov    edx,DWORD PTR [rdi]
    2ec2:	bb ca 00 00 00       	mov    ebx,0xca
    2ec7:	41 81 c9 00 00 00 80 	or     r9d,0x80000000
    2ece:	4c 89 7d 98          	mov    QWORD PTR [rbp-0x68],r15
    2ed2:	49 be 38 19 e5 f7 ff 	movabs r14,0x7ffff7e51938
    2ed9:	7f 00 00 
    2edc:	49 ff c3             	inc    r11
    2edf:	49 f7 c3 00 00 00 01 	test   r11,0x1000000
    2ee6:	0f 85 59 5f 00 00    	jne    0x8e45
    2eec:	85 d2                	test   edx,edx
    2eee:	0f 85 e5 07 00 00    	jne    0x36d9
    2ef4:	49 be 40 19 e5 f7 ff 	movabs r14,0x7ffff7e51940
    2efb:	7f 00 00 
    2efe:	49 ff c3             	inc    r11
    2f01:	49 f7 c3 00 00 00 01 	test   r11,0x1000000
    2f08:	0f 85 37 5f 00 00    	jne    0x8e45
    2f0e:	89 d0                	mov    eax,edx
    2f10:	f0 45 0f b1 0c 24    	lock cmpxchg DWORD PTR [r12],r9d
    2f16:	89 c2                	mov    edx,eax
    2f18:	85 c0                	test   eax,eax
    2f1a:	0f 85 b9 07 00 00    	jne    0x36d9
    2f20:	49 be 52 19 e5 f7 ff 	movabs r14,0x7ffff7e51952
    2f27:	7f 00 00 
    2f2a:	49 ff c3             	inc    r11
    2f2d:	49 f7 c3 00 00 00 01 	test   r11,0x1000000
    2f34:	0f 85 0b 5f 00 00    	jne    0x8e45
    2f3a:	41 81 7c 24 08 fe ff 	cmp    DWORD PTR [r12+0x8],0x7ffffffe
    2f41:	ff 7f 
    2f43:	0f 84 a5 0f 00 00    	je     0x3eee
    2f49:	41 c7 44 24 04 01 00 	mov    DWORD PTR [r12+0x4],0x1
    2f50:	00 00 
    2f52:	4c 8b 75 80          	mov    r14,QWORD PTR [rbp-0x80]
    2f56:	49 8b 86 e0 02 00 00 	mov    rax,QWORD PTR [r14+0x2e0]
    2f5d:	48 83 e0 fe          	and    rax,0xfffffffffffffffe
    2f61:	4c 89 40 f8          	mov    QWORD PTR [rax-0x8],r8
    2f65:	49 8b 86 e0 02 00 00 	mov    rax,QWORD PTR [r14+0x2e0]
    2f6c:	49 89 44 24 20       	mov    QWORD PTR [r12+0x20],rax
    2f71:	49 8b 46 10          	mov    rax,QWORD PTR [r14+0x10]
    2f75:	48 05 e0 02 00 00    	add    rax,0x2e0
    2f7b:	49 89 44 24 18       	mov    QWORD PTR [r12+0x18],rax
    2f80:	4d 89 86 e0 02 00 00 	mov    QWORD PTR [r14+0x2e0],r8
    2f87:	49 c7 86 f0 02 00 00 	mov    QWORD PTR [r14+0x2f0],0x0
    2f8e:	00 00 00 00 
    2f92:	49 be ad 19 e5 f7 ff 	movabs r14,0x7ffff7e519ad
    2f99:	7f 00 00 
    2f9c:	49 ff c3             	inc    r11
    2f9f:	49 f7 c3 00 00 00 01 	test   r11,0x1000000
    2fa6:	0f 85 99 5e 00 00    	jne    0x8e45
    2fac:	4c 8b 75 98          	mov    r14,QWORD PTR [rbp-0x68]
    2fb0:	45 89 74 24 08       	mov    DWORD PTR [r12+0x8],r14d
    2fb5:	90                   	nop
    2fb6:	4c 8b 7d b0          	mov    r15,QWORD PTR [rbp-0x50]
    2fba:	45 31 ff             	xor    r15d,r15d
    2fbd:	4c 89 7d b0          	mov    QWORD PTR [rbp-0x50],r15
    2fc1:	4c 89 75 98          	mov    QWORD PTR [rbp-0x68],r14
    2fc5:	eb 0e                	jmp    0x2fd5
    2fc7:	4c 8b 75 b0          	mov    r14,QWORD PTR [rbp-0x50]
    2fcb:	41 be 16 00 00 00    	mov    r14d,0x16
    2fd1:	4c 89 75 b0          	mov    QWORD PTR [rbp-0x50],r14
    2fd5:	49 be bd 19 e5 f7 ff 	movabs r14,0x7ffff7e519bd
    2fdc:	7f 00 00 
    2fdf:	49 ff c3             	inc    r11
    2fe2:	49 f7 c3 00 00 00 01 	test   r11,0x1000000
    2fe9:	0f 85 56 5e 00 00    	jne    0x8e45
    2fef:	49 8b 45 18          	mov    rax,QWORD PTR [r13+0x18]
    2ff3:	4c 8b 75 80          	mov    r14,QWORD PTR [rbp-0x80]
    2ff7:	49 33 46 28          	xor    rax,QWORD PTR [r14+0x28]
    2ffb:	0f 85 60 0f 00 00    	jne    0x3f61
    3001:	49 83 c5 28          	add    r13,0x28
    3005:	4c 8b 75 b0          	mov    r14,QWORD PTR [rbp-0x50]
    3009:	44 89 f0             	mov    eax,r14d
    300c:	49 8b 5d 00          	mov    rbx,QWORD PTR [r13+0x0]
    3010:	4d 8d 6d 08          	lea    r13,[r13+0x8]
    3014:	4d 8b 65 00          	mov    r12,QWORD PTR [r13+0x0]
    3018:	4d 8d 6d 08          	lea    r13,[r13+0x8]
    301c:	4c 8b 7d 98          	mov    r15,QWORD PTR [rbp-0x68]
    3020:	4d 8b 7d 00          	mov    r15,QWORD PTR [r13+0x0]
    3024:	4d 8d 6d 08          	lea    r13,[r13+0x8]
    3028:	4c 89 75 b0          	mov    QWORD PTR [rbp-0x50],r14
    302c:	4c 8b 75 a0          	mov    r14,QWORD PTR [rbp-0x60]
    3030:	4d 8b 75 00          	mov    r14,QWORD PTR [r13+0x0]
    3034:	4d 8d 6d 08          	lea    r13,[r13+0x8]
    3038:	4c 89 75 a0          	mov    QWORD PTR [rbp-0x60],r14
    303c:	4c 8b 75 a8          	mov    r14,QWORD PTR [rbp-0x58]
    3040:	4d 8b 75 00          	mov    r14,QWORD PTR [r13+0x0]
    3044:	4d 8d 6d 08          	lea    r13,[r13+0x8]
    3048:	4c 89 75 a8          	mov    QWORD PTR [rbp-0x58],r14
    304c:	4c 8b 75 b0          	mov    r14,QWORD PTR [rbp-0x50]
    3050:	4d 8b 75 00          	mov    r14,QWORD PTR [r13+0x0]
    3054:	4d 8d 6d 08          	lea    r13,[r13+0x8]
    3058:	4c 89 75 b0          	mov    QWORD PTR [rbp-0x50],r14
    305c:	4d 8b 75 00          	mov    r14,QWORD PTR [r13+0x0]
    3060:	4d 8d 6d 08          	lea    r13,[r13+0x8]
    3064:	4c 89 7d 98          	mov    QWORD PTR [rbp-0x68],r15
    3068:	e9 37 59 00 00       	jmp    0x89a4
    306d:	49 be e3 19 e5 f7 ff 	movabs r14,0x7ffff7e519e3
    3074:	7f 00 00 
    3077:	49 ff c3             	inc    r11
    307a:	49 f7 c3 00 00 00 01 	test   r11,0x1000000
    3081:	0f 85 be 5d 00 00    	jne    0x8e45
    3087:	83 e8 20             	sub    eax,0x20
    308a:	83 f8 03             	cmp    eax,0x3
    308d:	0f 87 34 ff ff ff    	ja     0x2fc7
    3093:	49 be eb 19 e5 f7 ff 	movabs r14,0x7ffff7e519eb
    309a:	7f 00 00 
    309d:	49 ff c3             	inc    r11
    30a0:	49 f7 c3 00 00 00 01 	test   r11,0x1000000
    30a7:	0f 85 98 5d 00 00    	jne    0x8e45
    30ad:	45 8b 44 24 10       	mov    r8d,DWORD PTR [r12+0x10]
    30b2:	45 89 c1             	mov    r9d,r8d
    30b5:	41 83 e1 03          	and    r9d,0x3
    30b9:	41 83 e0 10          	and    r8d,0x10
    30bd:	0f 85 40 05 00 00    	jne    0x3603
    30c3:	49 be 00 1a e5 f7 ff 	movabs r14,0x7ffff7e51a00
    30ca:	7f 00 00 
    30cd:	49 ff c3             	inc    r11
    30d0:	49 f7 c3 00 00 00 01 	test   r11,0x1000000
    30d7:	0f 85 68 5d 00 00    	jne    0x8e45
    30dd:	41 8b 04 24          	mov    eax,DWORD PTR [r12]
    30e1:	25 ff ff ff 3f       	and    eax,0x3fffffff
    30e6:	4c 8b 75 98          	mov    r14,QWORD PTR [rbp-0x68]
    30ea:	41 39 c6             	cmp    r14d,eax
    30ed:	4c 89 75 98          	mov    QWORD PTR [rbp-0x68],r14
    30f1:	0f 84 10 09 00 00    	je     0x3a07
    30f7:	49 be 11 1a e5 f7 ff 	movabs r14,0x7ffff7e51a11
    30fe:	7f 00 00 
    3101:	49 ff c3             	inc    r11
    3104:	49 f7 c3 00 00 00 01 	test   r11,0x1000000
    310b:	0f 85 34 5d 00 00    	jne    0x8e45
    3111:	4c 8b 75 98          	mov    r14,QWORD PTR [rbp-0x68]
    3115:	44 89 f2             	mov    edx,r14d
    3118:	31 c0                	xor    eax,eax
    311a:	81 ca 00 00 00 80    	or     edx,0x80000000
    3120:	f0 41 0f b1 14 24    	lock cmpxchg DWORD PTR [r12],edx
    3126:	85 c0                	test   eax,eax
    3128:	4c 89 75 98          	mov    QWORD PTR [rbp-0x68],r14
    312c:	0f 84 13 04 00 00    	je     0x3545
    3132:	49 be 29 1a e5 f7 ff 	movabs r14,0x7ffff7e51a29
    3139:	7f 00 00 
    313c:	49 ff c3             	inc    r11
    313f:	49 f7 c3 00 00 00 01 	test   r11,0x1000000
    3146:	0f 85 f9 5c 00 00    	jne    0x8e45
    314c:	be 06 00 00 00       	mov    esi,0x6
    3151:	bb 80 00 00 00       	mov    ebx,0x80
    3156:	45 85 c0             	test   r8d,r8d
    3159:	0f 84 1c 07 00 00    	je     0x387b
    315f:	45 31 d2             	xor    r10d,r10d
    3162:	31 d2                	xor    edx,edx
    3164:	4c 89 e7             	mov    rdi,r12
    3167:	b8 ca 00 00 00       	mov    eax,0xca
    316c:	49 be 49 1a e5 f7 ff 	movabs r14,0x7ffff7e51a49
    3173:	7f 00 00 
    3176:	e9 af 5c 00 00       	jmp    0x8e2a
    317b:	49 be 4b 1a e5 f7 ff 	movabs r14,0x7ffff7e51a4b
    3182:	7f 00 00 
    3185:	49 ff c3             	inc    r11
    3188:	49 f7 c3 00 00 00 01 	test   r11,0x1000000
    318f:	0f 85 b0 5c 00 00    	jne    0x8e45
    3195:	48 3d 00 f0 ff ff    	cmp    rax,0xfffffffffffff000
    319b:	0f 87 cc 09 00 00    	ja     0x3b6d
    31a1:	49 be 57 1a e5 f7 ff 	movabs r14,0x7ffff7e51a57
    31a8:	7f 00 00 
    31ab:	49 ff c3             	inc    r11
    31ae:	49 f7 c3 00 00 00 01 	test   r11,0x1000000
    31b5:	0f 85 8a 5c 00 00    	jne    0x8e45
    31bb:	41 8b 04 24          	mov    eax,DWORD PTR [r12]
    31bf:	25 00 00 00 40       	and    eax,0x40000000
    31c4:	45 85 c0             	test   r8d,r8d
    31c7:	0f 84 3c 06 00 00    	je     0x3809
    31cd:	49 be 68 1a e5 f7 ff 	movabs r14,0x7ffff7e51a68
    31d4:	7f 00 00 
    31d7:	49 ff c3             	inc    r11
    31da:	49 f7 c3 00 00 00 01 	test   r11,0x1000000
    31e1:	0f 85 5e 5c 00 00    	jne    0x8e45
    31e7:	85 c0                	test   eax,eax
    31e9:	0f 84 79 03 00 00    	je     0x3568
    31ef:	49 be 70 1a e5 f7 ff 	movabs r14,0x7ffff7e51a70
    31f6:	7f 00 00 
    31f9:	49 ff c3             	inc    r11
    31fc:	49 f7 c3 00 00 00 01 	test   r11,0x1000000
    3203:	0f 85 3c 5c 00 00    	jne    0x8e45
    3209:	f0 41 81 24 24 ff ff 	lock and DWORD PTR [r12],0xbfffffff
    3210:	ff bf 
    3212:	48 b8 01 00 00 00 ff 	movabs rax,0x7fffffff00000001
    3219:	ff ff 7f 
    321c:	49 89 44 24 04       	mov    QWORD PTR [r12+0x4],rax
    3221:	4c 8b 75 80          	mov    r14,QWORD PTR [rbp-0x80]
    3225:	49 8b 96 e0 02 00 00 	mov    rdx,QWORD PTR [r14+0x2e0]
    322c:	49 8d 44 24 20       	lea    rax,[r12+0x20]
    3231:	48 83 e2 fe          	and    rdx,0xfffffffffffffffe
    3235:	48 89 42 f8          	mov    QWORD PTR [rdx-0x8],rax
    3239:	49 8b 96 e0 02 00 00 	mov    rdx,QWORD PTR [r14+0x2e0]
    3240:	49 89 54 24 20       	mov    QWORD PTR [r12+0x20],rdx
    3245:	49 8b 56 10          	mov    rdx,QWORD PTR [r14+0x10]
    3249:	48 81 c2 e0 02 00 00 	add    rdx,0x2e0
    3250:	49 89 54 24 18       	mov    QWORD PTR [r12+0x18],rdx
    3255:	48 83 c8 01          	or     rax,0x1
    3259:	49 89 86 e0 02 00 00 	mov    QWORD PTR [r14+0x2e0],rax
    3260:	49 c7 86 f0 02 00 00 	mov    QWORD PTR [r14+0x2f0],0x0
    3267:	00 00 00 00 
    326b:	4c 8b 7d b0          	mov    r15,QWORD PTR [rbp-0x50]
    326f:	41 bf 82 00 00 00    	mov    r15d,0x82
    3275:	41 83 6c 24 0c 01    	sub    DWORD PTR [r12+0xc],0x1
    327b:	4c 89 7d b0          	mov    QWORD PTR [rbp-0x50],r15
    327f:	e9 51 fd ff ff       	jmp    0x2fd5
    3284:	49 be e8 1a e5 f7 ff 	movabs r14,0x7ffff7e51ae8
    328b:	7f 00 00 
    328e:	49 ff c3             	inc    r11
    3291:	49 f7 c3 00 00 00 01 	test   r11,0x1000000
    3298:	0f 85 a7 5b 00 00    	jne    0x8e45
    329e:	83 e8 40             	sub    eax,0x40
    32a1:	83 f8 03             	cmp    eax,0x3
    32a4:	0f 87 1d fd ff ff    	ja     0x2fc7
    32aa:	49 be f4 1a e5 f7 ff 	movabs r14,0x7ffff7e51af4
    32b1:	7f 00 00 
    32b4:	49 ff c3             	inc    r11
    32b7:	49 f7 c3 00 00 00 01 	test   r11,0x1000000
    32be:	0f 85 81 5b 00 00    	jne    0x8e45
    32c4:	8b 47 10             	mov    eax,DWORD PTR [rdi+0x10]
    32c7:	8b 37                	mov    esi,DWORD PTR [rdi]
    32c9:	bf ff ff ff ff       	mov    edi,0xffffffff
    32ce:	4c 8b 75 98          	mov    r14,QWORD PTR [rbp-0x68]
    32d2:	45 3b 74 24 08       	cmp    r14d,DWORD PTR [r12+0x8]
    32d7:	4c 89 75 98          	mov    QWORD PTR [rbp-0x68],r14
    32db:	0f 84 55 03 00 00    	je     0x3636
    32e1:	bb ca 00 00 00       	mov    ebx,0xca
    32e6:	c1 ee 13             	shr    esi,0x13
    32e9:	41 89 7d 0c          	mov    DWORD PTR [r13+0xc],edi
    32ed:	4c 8b 75 a8          	mov    r14,QWORD PTR [rbp-0x58]
    32f1:	41 89 f6             	mov    r14d,esi
    32f4:	49 bf 1c 1b e5 f7 ff 	movabs r15,0x7ffff7e51b1c
    32fb:	7f 00 00 
    32fe:	4d 8d 6d f8          	lea    r13,[r13-0x8]
    3302:	4d 89 7d 00          	mov    QWORD PTR [r13+0x0],r15
    3306:	4c 89 75 a8          	mov    QWORD PTR [rbp-0x58],r14
    330a:	e9 d1 58 00 00       	jmp    0x8be0
    330f:	49 be 1c 1b e5 f7 ff 	movabs r14,0x7ffff7e51b1c
    3316:	7f 00 00 
    3319:	49 ff c3             	inc    r11
    331c:	49 f7 c3 00 00 00 01 	test   r11,0x1000000
    3323:	0f 85 1c 5b 00 00    	jne    0x8e45
    3329:	41 8b 7d 0c          	mov    edi,DWORD PTR [r13+0xc]
    332d:	4c 8b 75 a8          	mov    r14,QWORD PTR [rbp-0x58]
    3331:	44 39 f0             	cmp    eax,r14d
    3334:	4c 89 75 a8          	mov    QWORD PTR [rbp-0x58],r14
    3338:	0f 8f 5f 04 00 00    	jg     0x379d
    333e:	4c 8b 75 a8          	mov    r14,QWORD PTR [rbp-0x58]
    3342:	44 89 f6             	mov    esi,r14d
    3345:	49 bf 31 1b e5 f7 ff 	movabs r15,0x7ffff7e51b31
    334c:	7f 00 00 
    334f:	4d 8d 6d f8          	lea    r13,[r13-0x8]
    3353:	4d 89 7d 00          	mov    QWORD PTR [r13+0x0],r15
    3357:	4c 89 75 a8          	mov    QWORD PTR [rbp-0x58],r14
    335b:	e9 18 58 00 00       	jmp    0x8b78
    3360:	49 be 31 1b e5 f7 ff 	movabs r14,0x7ffff7e51b31
    3367:	7f 00 00 
    336a:	49 ff c3             	inc    r11
    336d:	49 f7 c3 00 00 00 01 	test   r11,0x1000000
    3374:	0f 85 cb 5a 00 00    	jne    0x8e45
    337a:	4c 8b 75 b0          	mov    r14,QWORD PTR [rbp-0x50]
    337e:	41 89 c6             	mov    r14d,eax
    3381:	85 c0                	test   eax,eax
    3383:	4c 89 75 b0          	mov    QWORD PTR [rbp-0x50],r14
    3387:	0f 85 48 fc ff ff    	jne    0x2fd5
    338d:	49 be 3c 1b e5 f7 ff 	movabs r14,0x7ffff7e51b3c
    3394:	7f 00 00 
    3397:	49 ff c3             	inc    r11
    339a:	49 f7 c3 00 00 00 01 	test   r11,0x1000000
    33a1:	0f 85 9e 5a 00 00    	jne    0x8e45
    33a7:	4c 8b 75 a8          	mov    r14,QWORD PTR [rbp-0x58]
    33ab:	45 89 f0             	mov    r8d,r14d
    33ae:	41 c1 e0 13          	shl    r8d,0x13
    33b2:	44 89 c2             	mov    edx,r8d
    33b5:	44 89 c0             	mov    eax,r8d
    33b8:	83 ca 02             	or     edx,0x2
    33bb:	f0 41 0f b1 14 24    	lock cmpxchg DWORD PTR [r12],edx
    33c1:	41 39 c0             	cmp    r8d,eax
    33c4:	4c 89 75 a8          	mov    QWORD PTR [rbp-0x58],r14
    33c8:	0f 84 b3 00 00 00    	je     0x3481
    33ce:	45 89 c1             	mov    r9d,r8d
    33d1:	41 83 c9 01          	or     r9d,0x1
    33d5:	90                   	nop
    33d6:	49 be 60 1b e5 f7 ff 	movabs r14,0x7ffff7e51b60
    33dd:	7f 00 00 
    33e0:	49 ff c3             	inc    r11
    33e3:	49 f7 c3 00 00 00 01 	test   r11,0x1000000
    33ea:	0f 85 55 5a 00 00    	jne    0x8e45
    33f0:	44 89 c8             	mov    eax,r9d
    33f3:	f0 41 0f b1 14 24    	lock cmpxchg DWORD PTR [r12],edx
    33f9:	89 c1                	mov    ecx,eax
    33fb:	89 c6                	mov    esi,eax
    33fd:	81 e1 00 00 f8 ff    	and    ecx,0xfff80000
    3403:	41 39 c8             	cmp    r8d,ecx
    3406:	0f 85 0f 01 00 00    	jne    0x351b
    340c:	49 be 77 1b e5 f7 ff 	movabs r14,0x7ffff7e51b77
    3413:	7f 00 00 
    3416:	49 ff c3             	inc    r11
    3419:	49 f7 c3 00 00 00 01 	test   r11,0x1000000
    3420:	0f 85 1f 5a 00 00    	jne    0x8e45
    3426:	41 39 c0             	cmp    r8d,eax
    3429:	0f 84 a1 00 00 00    	je     0x34d0
    342f:	4c 8b 75 a0          	mov    r14,QWORD PTR [rbp-0x60]
    3433:	41 8b 36             	mov    esi,DWORD PTR [r14]
    3436:	45 31 d2             	xor    r10d,r10d
    3439:	4c 89 e7             	mov    rdi,r12
    343c:	89 d8                	mov    eax,ebx
    343e:	f7 d6                	not    esi
    3440:	81 e6 80 00 00 00    	and    esi,0x80
    3446:	49 be 90 1b e5 f7 ff 	movabs r14,0x7ffff7e51b90
    344d:	7f 00 00 
    3450:	e9 d5 59 00 00       	jmp    0x8e2a
    3455:	49 be 92 1b e5 f7 ff 	movabs r14,0x7ffff7e51b92
    345c:	7f 00 00 
    345f:	49 ff c3             	inc    r11
    3462:	49 f7 c3 00 00 00 01 	test   r11,0x1000000
    3469:	0f 85 d6 59 00 00    	jne    0x8e45
    346f:	44 89 c0             	mov    eax,r8d
    3472:	f0 41 0f b1 14 24    	lock cmpxchg DWORD PTR [r12],edx
    3478:	44 39 c0             	cmp    eax,r8d
    347b:	0f 85 55 ff ff ff    	jne    0x33d6
    3481:	49 be 9f 1b e5 f7 ff 	movabs r14,0x7ffff7e51b9f
    3488:	7f 00 00 
    348b:	49 ff c3             	inc    r11
    348e:	49 f7 c3 00 00 00 01 	test   r11,0x1000000
    3495:	0f 85 aa 59 00 00    	jne    0x8e45
    349b:	41 8b 44 24 08       	mov    eax,DWORD PTR [r12+0x8]
    34a0:	85 c0                	test   eax,eax
    34a2:	0f 85 51 09 00 00    	jne    0x3df9
    34a8:	49 be aa 1b e5 f7 ff 	movabs r14,0x7ffff7e51baa
    34af:	7f 00 00 
    34b2:	49 ff c3             	inc    r11
    34b5:	49 f7 c3 00 00 00 01 	test   r11,0x1000000
    34bc:	0f 85 83 59 00 00    	jne    0x8e45
    34c2:	41 c7 44 24 04 01 00 	mov    DWORD PTR [r12+0x4],0x1
    34c9:	00 00 
    34cb:	e9 c2 fa ff ff       	jmp    0x2f92
    34d0:	49 be c0 1b e5 f7 ff 	movabs r14,0x7ffff7e51bc0
    34d7:	7f 00 00 
    34da:	49 ff c3             	inc    r11
    34dd:	49 f7 c3 00 00 00 01 	test   r11,0x1000000
    34e4:	0f 85 5b 59 00 00    	jne    0x8e45
    34ea:	44 89 c0             	mov    eax,r8d
    34ed:	f0 41 0f b1 14 24    	lock cmpxchg DWORD PTR [r12],edx
    34f3:	41 39 c0             	cmp    r8d,eax
    34f6:	0f 85 da fe ff ff    	jne    0x33d6
    34fc:	49 be cd 1b e5 f7 ff 	movabs r14,0x7ffff7e51bcd
    3503:	7f 00 00 
    3506:	49 ff c3             	inc    r11
    3509:	49 f7 c3 00 00 00 01 	test   r11,0x1000000
    3510:	0f 85 2f 59 00 00    	jne    0x8e45
    3516:	e9 66 ff ff ff       	jmp    0x3481
    351b:	49 be cf 1b e5 f7 ff 	movabs r14,0x7ffff7e51bcf
    3522:	7f 00 00 
    3525:	49 ff c3             	inc    r11
    3528:	49 f7 c3 00 00 00 01 	test   r11,0x1000000
    352f:	0f 85 10 59 00 00    	jne    0x8e45
    3535:	4c 8b 75 a8          	mov    r14,QWORD PTR [rbp-0x58]
    3539:	44 89 f7             	mov    edi,r14d
    353c:	4c 89 75 a8          	mov    QWORD PTR [rbp-0x58],r14
    3540:	e9 a1 fd ff ff       	jmp    0x32e6
    3545:	49 be d7 1b e5 f7 ff 	movabs r14,0x7ffff7e51bd7
    354c:	7f 00 00 
    354f:	49 ff c3             	inc    r11
    3552:	49 f7 c3 00 00 00 01 	test   r11,0x1000000
    3559:	0f 85 e6 58 00 00    	jne    0x8e45
    355f:	45 85 c0             	test   r8d,r8d
    3562:	0f 84 40 ff ff ff    	je     0x34a8
    3568:	49 be dc 1b e5 f7 ff 	movabs r14,0x7ffff7e51bdc
    356f:	7f 00 00 
    3572:	49 ff c3             	inc    r11
    3575:	49 f7 c3 00 00 00 01 	test   r11,0x1000000
    357c:	0f 85 c3 58 00 00    	jne    0x8e45
    3582:	41 81 7c 24 08 fe ff 	cmp    DWORD PTR [r12+0x8],0x7ffffffe
    3589:	ff 7f 
    358b:	0f 84 dc 07 00 00    	je     0x3d6d
    3591:	49 be e9 1b e5 f7 ff 	movabs r14,0x7ffff7e51be9
    3598:	7f 00 00 
    359b:	49 ff c3             	inc    r11
    359e:	49 f7 c3 00 00 00 01 	test   r11,0x1000000
    35a5:	0f 85 9a 58 00 00    	jne    0x8e45
    35ab:	41 c7 44 24 04 01 00 	mov    DWORD PTR [r12+0x4],0x1
    35b2:	00 00 
    35b4:	4c 8b 75 80          	mov    r14,QWORD PTR [rbp-0x80]
    35b8:	49 8b 96 e0 02 00 00 	mov    rdx,QWORD PTR [r14+0x2e0]
    35bf:	49 8d 44 24 20       	lea    rax,[r12+0x20]
    35c4:	48 83 e2 fe          	and    rdx,0xfffffffffffffffe
    35c8:	48 89 42 f8          	mov    QWORD PTR [rdx-0x8],rax
    35cc:	49 8b 96 e0 02 00 00 	mov    rdx,QWORD PTR [r14+0x2e0]
    35d3:	49 89 54 24 20       	mov    QWORD PTR [r12+0x20],rdx
    35d8:	49 8b 56 10          	mov    rdx,QWORD PTR [r14+0x10]
    35dc:	48 81 c2 e0 02 00 00 	add    rdx,0x2e0
    35e3:	49 89 54 24 18       	mov    QWORD PTR [r12+0x18],rdx
    35e8:	48 83 c8 01          	or     rax,0x1
    35ec:	49 89 86 e0 02 00 00 	mov    QWORD PTR [r14+0x2e0],rax
    35f3:	49 c7 86 f0 02 00 00 	mov    QWORD PTR [r14+0x2f0],0x0
    35fa:	00 00 00 00 
    35fe:	e9 8f f9 ff ff       	jmp    0x2f92
    3603:	49 be 45 1c e5 f7 ff 	movabs r14,0x7ffff7e51c45
    360a:	7f 00 00 
    360d:	49 ff c3             	inc    r11
    3610:	49 f7 c3 00 00 00 01 	test   r11,0x1000000
    3617:	0f 85 28 58 00 00    	jne    0x8e45
    361d:	49 8d 44 24 20       	lea    rax,[r12+0x20]
    3622:	48 83 c8 01          	or     rax,0x1
    3626:	4c 8b 75 80          	mov    r14,QWORD PTR [rbp-0x80]
    362a:	49 89 86 f0 02 00 00 	mov    QWORD PTR [r14+0x2f0],rax
    3631:	e9 8d fa ff ff       	jmp    0x30c3
    3636:	49 be 5b 1c e5 f7 ff 	movabs r14,0x7ffff7e51c5b
    363d:	7f 00 00 
    3640:	49 ff c3             	inc    r11
    3643:	49 f7 c3 00 00 00 01 	test   r11,0x1000000
    364a:	0f 85 f5 57 00 00    	jne    0x8e45
    3650:	83 e0 03             	and    eax,0x3
    3653:	83 f8 02             	cmp    eax,0x2
    3656:	0f 84 93 04 00 00    	je     0x3aef
    365c:	49 be 67 1c e5 f7 ff 	movabs r14,0x7ffff7e51c67
    3663:	7f 00 00 
    3666:	49 ff c3             	inc    r11
    3669:	49 f7 c3 00 00 00 01 	test   r11,0x1000000
    3670:	0f 85 cf 57 00 00    	jne    0x8e45
    3676:	83 f8 01             	cmp    eax,0x1
    3679:	0f 85 62 fc ff ff    	jne    0x32e1
    367f:	49 be 70 1c e5 f7 ff 	movabs r14,0x7ffff7e51c70
    3686:	7f 00 00 
    3689:	49 ff c3             	inc    r11
    368c:	49 f7 c3 00 00 00 01 	test   r11,0x1000000
    3693:	0f 85 ac 57 00 00    	jne    0x8e45
    3699:	41 8b 44 24 04       	mov    eax,DWORD PTR [r12+0x4]
    369e:	83 f8 ff             	cmp    eax,0xffffffff
    36a1:	0f 84 df 03 00 00    	je     0x3a86
    36a7:	49 be 7c 1c e5 f7 ff 	movabs r14,0x7ffff7e51c7c
    36ae:	7f 00 00 
    36b1:	49 ff c3             	inc    r11
    36b4:	49 f7 c3 00 00 00 01 	test   r11,0x1000000
    36bb:	0f 85 84 57 00 00    	jne    0x8e45
    36c1:	83 c0 01             	add    eax,0x1
    36c4:	4c 8b 75 b0          	mov    r14,QWORD PTR [rbp-0x50]
    36c8:	45 31 f6             	xor    r14d,r14d
    36cb:	41 89 44 24 04       	mov    DWORD PTR [r12+0x4],eax
    36d0:	4c 89 75 b0          	mov    QWORD PTR [rbp-0x50],r14
    36d4:	e9 fc f8 ff ff       	jmp    0x2fd5
    36d9:	49 be 8a 1c e5 f7 ff 	movabs r14,0x7ffff7e51c8a
    36e0:	7f 00 00 
    36e3:	49 ff c3             	inc    r11
    36e6:	49 f7 c3 00 00 00 01 	test   r11,0x1000000
    36ed:	0f 85 52 57 00 00    	jne    0x8e45
    36f3:	4c 8b 75 b0          	mov    r14,QWORD PTR [rbp-0x50]
    36f7:	41 89 d6             	mov    r14d,edx
    36fa:	89 d0                	mov    eax,edx
    36fc:	41 81 e6 00 00 00 40 	and    r14d,0x40000000
    3703:	4c 89 75 b0          	mov    QWORD PTR [rbp-0x50],r14
    3707:	0f 85 50 02 00 00    	jne    0x395d
    370d:	49 be 9c 1c e5 f7 ff 	movabs r14,0x7ffff7e51c9c
    3714:	7f 00 00 
    3717:	49 ff c3             	inc    r11
    371a:	49 f7 c3 00 00 00 01 	test   r11,0x1000000
    3721:	0f 85 1e 57 00 00    	jne    0x8e45
    3727:	25 ff ff ff 3f       	and    eax,0x3fffffff
    372c:	4c 8b 75 98          	mov    r14,QWORD PTR [rbp-0x68]
    3730:	41 39 c6             	cmp    r14d,eax
    3733:	4c 89 75 98          	mov    QWORD PTR [rbp-0x68],r14
    3737:	0f 84 6e 01 00 00    	je     0x38ab
    373d:	49 be a6 1c e5 f7 ff 	movabs r14,0x7ffff7e51ca6
    3744:	7f 00 00 
    3747:	49 ff c3             	inc    r11
    374a:	49 f7 c3 00 00 00 01 	test   r11,0x1000000
    3751:	0f 85 ee 56 00 00    	jne    0x8e45
    3757:	85 d2                	test   edx,edx
    3759:	0f 89 bd 03 00 00    	jns    0x3b1c
    375f:	45 31 d2             	xor    r10d,r10d
    3762:	31 f6                	xor    esi,esi
    3764:	4c 89 e7             	mov    rdi,r12
    3767:	89 d8                	mov    eax,ebx
    3769:	49 be b8 1c e5 f7 ff 	movabs r14,0x7ffff7e51cb8
    3770:	7f 00 00 
    3773:	e9 b2 56 00 00       	jmp    0x8e2a
    3778:	41 8b 04 24          	mov    eax,DWORD PTR [r12]
    377c:	49 be bd 1c e5 f7 ff 	movabs r14,0x7ffff7e51cbd
    3783:	7f 00 00 
    3786:	49 ff c3             	inc    r11
    3789:	49 f7 c3 00 00 00 01 	test   r11,0x1000000
    3790:	0f 85 af 56 00 00    	jne    0x8e45
    3796:	89 c2                	mov    edx,eax
    3798:	e9 35 f7 ff ff       	jmp    0x2ed2
    379d:	49 be c4 1c e5 f7 ff 	movabs r14,0x7ffff7e51cc4
    37a4:	7f 00 00 
    37a7:	49 ff c3             	inc    r11
    37aa:	49 f7 c3 00 00 00 01 	test   r11,0x1000000
    37b1:	0f 85 8e 56 00 00    	jne    0x8e45
    37b7:	4c 8b 75 b0          	mov    r14,QWORD PTR [rbp-0x50]
    37bb:	41 be 16 00 00 00    	mov    r14d,0x16
    37c1:	83 ff ff             	cmp    edi,0xffffffff
    37c4:	4c 89 75 b0          	mov    QWORD PTR [rbp-0x50],r14
    37c8:	0f 84 07 f8 ff ff    	je     0x2fd5
    37ce:	be ff ff ff ff       	mov    esi,0xffffffff
    37d3:	49 be dd 1c e5 f7 ff 	movabs r14,0x7ffff7e51cdd
    37da:	7f 00 00 
    37dd:	4d 8d 6d f8          	lea    r13,[r13-0x8]
    37e1:	4d 89 75 00          	mov    QWORD PTR [r13+0x0],r14
    37e5:	e9 8e 53 00 00       	jmp    0x8b78
    37ea:	49 be dd 1c e5 f7 ff 	movabs r14,0x7ffff7e51cdd
    37f1:	7f 00 00 
    37f4:	49 ff c3             	inc    r11
    37f7:	49 f7 c3 00 00 00 01 	test   r11,0x1000000
    37fe:	0f 85 41 56 00 00    	jne    0x8e45
    3804:	e9 cc f7 ff ff       	jmp    0x2fd5
    3809:	49 be e2 1c e5 f7 ff 	movabs r14,0x7ffff7e51ce2
    3810:	7f 00 00 
    3813:	49 ff c3             	inc    r11
    3816:	49 f7 c3 00 00 00 01 	test   r11,0x1000000
    381d:	0f 85 22 56 00 00    	jne    0x8e45
    3823:	85 c0                	test   eax,eax
    3825:	0f 84 7d fc ff ff    	je     0x34a8
    382b:	49 be f1 1c e5 f7 ff 	movabs r14,0x7ffff7e51cf1
    3832:	7f 00 00 
    3835:	49 8d 8e df b2 00 00 	lea    rcx,[r14+0xb2df]
    383c:	ba b6 01 00 00       	mov    edx,0x1b6
    3841:	49 be fd 1c e5 f7 ff 	movabs r14,0x7ffff7e51cfd
    3848:	7f 00 00 
    384b:	49 8d b6 fd a8 00 00 	lea    rsi,[r14+0xa8fd]
    3852:	49 be 04 1d e5 f7 ff 	movabs r14,0x7ffff7e51d04
    3859:	7f 00 00 
    385c:	49 8d be 8c a8 00 00 	lea    rdi,[r14+0xa88c]
    3863:	49 be 09 1d e5 f7 ff 	movabs r14,0x7ffff7e51d09
    386a:	7f 00 00 
    386d:	4d 8d 6d f8          	lea    r13,[r13-0x8]
    3871:	4d 89 75 00          	mov    QWORD PTR [r13+0x0],r14
    3875:	e9 6a 54 00 00       	jmp    0x8ce4
    387a:	90                   	nop
    387b:	49 be 10 1d e5 f7 ff 	movabs r14,0x7ffff7e51d10
    3882:	7f 00 00 
    3885:	49 ff c3             	inc    r11
    3888:	49 f7 c3 00 00 00 01 	test   r11,0x1000000
    388f:	0f 85 b0 55 00 00    	jne    0x8e45
    3895:	41 8b 5c 24 10       	mov    ebx,DWORD PTR [r12+0x10]
    389a:	81 e3 80 00 00 00    	and    ebx,0x80
    38a0:	89 de                	mov    esi,ebx
    38a2:	40 80 f6 86          	xor    sil,0x86
    38a6:	e9 b4 f8 ff ff       	jmp    0x315f
    38ab:	49 be 24 1d e5 f7 ff 	movabs r14,0x7ffff7e51d24
    38b2:	7f 00 00 
    38b5:	49 ff c3             	inc    r11
    38b8:	49 f7 c3 00 00 00 01 	test   r11,0x1000000
    38bf:	0f 85 80 55 00 00    	jne    0x8e45
    38c5:	4c 8b 75 a0          	mov    r14,QWORD PTR [rbp-0x60]
    38c9:	41 8b 06             	mov    eax,DWORD PTR [r14]
    38cc:	83 e0 7f             	and    eax,0x7f
    38cf:	83 f8 12             	cmp    eax,0x12
    38d2:	4c 89 75 a0          	mov    QWORD PTR [rbp-0x60],r14
    38d6:	0f 84 d7 01 00 00    	je     0x3ab3
    38dc:	49 be 34 1d e5 f7 ff 	movabs r14,0x7ffff7e51d34
    38e3:	7f 00 00 
    38e6:	49 ff c3             	inc    r11
    38e9:	49 f7 c3 00 00 00 01 	test   r11,0x1000000
    38f0:	0f 85 4f 55 00 00    	jne    0x8e45
    38f6:	83 f8 11             	cmp    eax,0x11
    38f9:	0f 85 3e fe ff ff    	jne    0x373d
    38ff:	49 be 3d 1d e5 f7 ff 	movabs r14,0x7ffff7e51d3d
    3906:	7f 00 00 
    3909:	49 ff c3             	inc    r11
    390c:	49 f7 c3 00 00 00 01 	test   r11,0x1000000
    3913:	0f 85 2c 55 00 00    	jne    0x8e45
    3919:	4c 8b 75 80          	mov    r14,QWORD PTR [rbp-0x80]
    391d:	49 c7 86 f0 02 00 00 	mov    QWORD PTR [r14+0x2f0],0x0
    3924:	00 00 00 00 
    3928:	41 8b 44 24 04       	mov    eax,DWORD PTR [r12+0x4]
    392d:	83 f8 ff             	cmp    eax,0xffffffff
    3930:	0f 84 50 01 00 00    	je     0x3a86
    3936:	49 be 56 1d e5 f7 ff 	movabs r14,0x7ffff7e51d56
    393d:	7f 00 00 
    3940:	49 ff c3             	inc    r11
    3943:	49 f7 c3 00 00 00 01 	test   r11,0x1000000
    394a:	0f 85 f5 54 00 00    	jne    0x8e45
    3950:	83 c0 01             	add    eax,0x1
    3953:	41 89 44 24 04       	mov    DWORD PTR [r12+0x4],eax
    3958:	e9 78 f6 ff ff       	jmp    0x2fd5
    395d:	49 be 68 1d e5 f7 ff 	movabs r14,0x7ffff7e51d68
    3964:	7f 00 00 
    3967:	49 ff c3             	inc    r11
    396a:	49 f7 c3 00 00 00 01 	test   r11,0x1000000
    3971:	0f 85 ce 54 00 00    	jne    0x8e45
    3977:	f0 45 0f b1 0c 24    	lock cmpxchg DWORD PTR [r12],r9d
    397d:	39 c2                	cmp    edx,eax
    397f:	0f 85 f7 fd ff ff    	jne    0x377c
    3985:	49 be 76 1d e5 f7 ff 	movabs r14,0x7ffff7e51d76
    398c:	7f 00 00 
    398f:	49 ff c3             	inc    r11
    3992:	49 f7 c3 00 00 00 01 	test   r11,0x1000000
    3999:	0f 85 a6 54 00 00    	jne    0x8e45
    399f:	48 b8 01 00 00 00 ff 	movabs rax,0x7fffffff00000001
    39a6:	ff ff 7f 
    39a9:	49 89 44 24 04       	mov    QWORD PTR [r12+0x4],rax
    39ae:	4c 8b 75 80          	mov    r14,QWORD PTR [rbp-0x80]
    39b2:	49 8b 86 e0 02 00 00 	mov    rax,QWORD PTR [r14+0x2e0]
    39b9:	48 83 e0 fe          	and    rax,0xfffffffffffffffe
    39bd:	4c 89 40 f8          	mov    QWORD PTR [rax-0x8],r8
    39c1:	49 8b 86 e0 02 00 00 	mov    rax,QWORD PTR [r14+0x2e0]
    39c8:	49 89 44 24 20       	mov    QWORD PTR [r12+0x20],rax
    39cd:	49 8b 46 10          	mov    rax,QWORD PTR [r14+0x10]
    39d1:	48 05 e0 02 00 00    	add    rax,0x2e0
    39d7:	49 89 44 24 18       	mov    QWORD PTR [r12+0x18],rax
    39dc:	4d 89 86 e0 02 00 00 	mov    QWORD PTR [r14+0x2e0],r8
    39e3:	49 c7 86 f0 02 00 00 	mov    QWORD PTR [r14+0x2f0],0x0
    39ea:	00 00 00 00 
    39ee:	4c 8b 7d b0          	mov    r15,QWORD PTR [rbp-0x50]
    39f2:	41 bf 82 00 00 00    	mov    r15d,0x82
    39f8:	41 83 6c 24 0c 01    	sub    DWORD PTR [r12+0xc],0x1
    39fe:	4c 89 7d b0          	mov    QWORD PTR [rbp-0x50],r15
    3a02:	e9 ce f5 ff ff       	jmp    0x2fd5
    3a07:	49 be da 1d e5 f7 ff 	movabs r14,0x7ffff7e51dda
    3a0e:	7f 00 00 
    3a11:	49 ff c3             	inc    r11
    3a14:	49 f7 c3 00 00 00 01 	test   r11,0x1000000
    3a1b:	0f 85 24 54 00 00    	jne    0x8e45
    3a21:	41 83 f9 02          	cmp    r9d,0x2
    3a25:	0f 84 88 00 00 00    	je     0x3ab3
    3a2b:	49 be e0 1d e5 f7 ff 	movabs r14,0x7ffff7e51de0
    3a32:	7f 00 00 
    3a35:	49 ff c3             	inc    r11
    3a38:	49 f7 c3 00 00 00 01 	test   r11,0x1000000
    3a3f:	0f 85 00 54 00 00    	jne    0x8e45
    3a45:	41 83 f9 01          	cmp    r9d,0x1
    3a49:	0f 85 a8 f6 ff ff    	jne    0x30f7
    3a4f:	49 be ea 1d e5 f7 ff 	movabs r14,0x7ffff7e51dea
    3a56:	7f 00 00 
    3a59:	49 ff c3             	inc    r11
    3a5c:	49 f7 c3 00 00 00 01 	test   r11,0x1000000
    3a63:	0f 85 dc 53 00 00    	jne    0x8e45
    3a69:	4c 8b 75 80          	mov    r14,QWORD PTR [rbp-0x80]
    3a6d:	49 c7 86 f0 02 00 00 	mov    QWORD PTR [r14+0x2f0],0x0
    3a74:	00 00 00 00 
    3a78:	41 8b 44 24 04       	mov    eax,DWORD PTR [r12+0x4]
    3a7d:	83 f8 ff             	cmp    eax,0xffffffff
    3a80:	0f 85 21 fc ff ff    	jne    0x36a7
    3a86:	49 be 03 1e e5 f7 ff 	movabs r14,0x7ffff7e51e03
    3a8d:	7f 00 00 
    3a90:	49 ff c3             	inc    r11
    3a93:	49 f7 c3 00 00 00 01 	test   r11,0x1000000
    3a9a:	0f 85 a5 53 00 00    	jne    0x8e45
    3aa0:	4c 8b 75 b0          	mov    r14,QWORD PTR [rbp-0x50]
    3aa4:	41 be 0b 00 00 00    	mov    r14d,0xb
    3aaa:	4c 89 75 b0          	mov    QWORD PTR [rbp-0x50],r14
    3aae:	e9 22 f5 ff ff       	jmp    0x2fd5
    3ab3:	49 be 0e 1e e5 f7 ff 	movabs r14,0x7ffff7e51e0e
    3aba:	7f 00 00 
    3abd:	49 ff c3             	inc    r11
    3ac0:	49 f7 c3 00 00 00 01 	test   r11,0x1000000
    3ac7:	0f 85 78 53 00 00    	jne    0x8e45
    3acd:	4c 8b 75 80          	mov    r14,QWORD PTR [rbp-0x80]
    3ad1:	49 c7 86 f0 02 00 00 	mov    QWORD PTR [r14+0x2f0],0x0
    3ad8:	00 00 00 00 
    3adc:	4c 8b 7d b0          	mov    r15,QWORD PTR [rbp-0x50]
    3ae0:	41 bf 23 00 00 00    	mov    r15d,0x23
    3ae6:	4c 89 7d b0          	mov    QWORD PTR [rbp-0x50],r15
    3aea:	e9 e6 f4 ff ff       	jmp    0x2fd5
    3aef:	49 be 26 1e e5 f7 ff 	movabs r14,0x7ffff7e51e26
    3af6:	7f 00 00 
    3af9:	49 ff c3             	inc    r11
    3afc:	49 f7 c3 00 00 00 01 	test   r11,0x1000000
    3b03:	0f 85 3c 53 00 00    	jne    0x8e45
    3b09:	4c 8b 75 b0          	mov    r14,QWORD PTR [rbp-0x50]
    3b0d:	41 be 23 00 00 00    	mov    r14d,0x23
    3b13:	4c 89 75 b0          	mov    QWORD PTR [rbp-0x50],r14
    3b17:	e9 b9 f4 ff ff       	jmp    0x2fd5
    3b1c:	49 be 31 1e e5 f7 ff 	movabs r14,0x7ffff7e51e31
    3b23:	7f 00 00 
    3b26:	49 ff c3             	inc    r11
    3b29:	49 f7 c3 00 00 00 01 	test   r11,0x1000000
    3b30:	0f 85 0f 53 00 00    	jne    0x8e45
    3b36:	89 d1                	mov    ecx,edx
    3b38:	89 d0                	mov    eax,edx
    3b3a:	81 c9 00 00 00 80    	or     ecx,0x80000000
    3b40:	f0 41 0f b1 0c 24    	lock cmpxchg DWORD PTR [r12],ecx
    3b46:	0f 85 2c fc ff ff    	jne    0x3778
    3b4c:	49 be 46 1e e5 f7 ff 	movabs r14,0x7ffff7e51e46
    3b53:	7f 00 00 
    3b56:	49 ff c3             	inc    r11
    3b59:	49 f7 c3 00 00 00 01 	test   r11,0x1000000
    3b60:	0f 85 df 52 00 00    	jne    0x8e45
    3b66:	89 ca                	mov    edx,ecx
    3b68:	e9 f2 fb ff ff       	jmp    0x375f
    3b6d:	49 be 4d 1e e5 f7 ff 	movabs r14,0x7ffff7e51e4d
    3b74:	7f 00 00 
    3b77:	49 ff c3             	inc    r11
    3b7a:	49 f7 c3 00 00 00 01 	test   r11,0x1000000
    3b81:	0f 85 be 52 00 00    	jne    0x8e45
    3b87:	83 f8 92             	cmp    eax,0xffffff92
    3b8a:	0f 84 11 f6 ff ff    	je     0x31a1
    3b90:	49 be 56 1e e5 f7 ff 	movabs r14,0x7ffff7e51e56
    3b97:	7f 00 00 
    3b9a:	49 ff c3             	inc    r11
    3b9d:	49 f7 c3 00 00 00 01 	test   r11,0x1000000
    3ba4:	0f 85 9b 52 00 00    	jne    0x8e45
    3baa:	8d 50 23             	lea    edx,[rax+0x23]
    3bad:	83 fa 23             	cmp    edx,0x23
    3bb0:	0f 87 a9 00 00 00    	ja     0x3c5f
    3bb6:	49 be 5e 1e e5 f7 ff 	movabs r14,0x7ffff7e51e5e
    3bbd:	7f 00 00 
    3bc0:	49 ff c3             	inc    r11
    3bc3:	49 f7 c3 00 00 00 01 	test   r11,0x1000000
    3bca:	0f 85 75 52 00 00    	jne    0x8e45
    3bd0:	83 fa 20             	cmp    edx,0x20
    3bd3:	0f 87 86 00 00 00    	ja     0x3c5f
    3bd9:	49 be 63 1e e5 f7 ff 	movabs r14,0x7ffff7e51e63
    3be0:	7f 00 00 
    3be3:	49 ff c3             	inc    r11
    3be6:	49 f7 c3 00 00 00 01 	test   r11,0x1000000
    3bed:	0f 85 52 52 00 00    	jne    0x8e45
    3bf3:	49 be 6a 1e e5 f7 ff 	movabs r14,0x7ffff7e51e6a
    3bfa:	7f 00 00 
    3bfd:	49 8d 8e 06 b0 00 00 	lea    rcx,[r14+0xb006]
    3c04:	48 63 14 91          	movsxd rdx,DWORD PTR [rcx+rdx*4]
    3c08:	48 01 ca             	add    rdx,rcx
    3c0b:	49 89 d6             	mov    r14,rdx
    3c0e:	e9 d9 4d 00 00       	jmp    0x89ec
    3c13:	4d 8d 65 14          	lea    r12,[r13+0x14]
    3c17:	90                   	nop
    3c18:	41 89 d8             	mov    r8d,ebx
    3c1b:	31 c9                	xor    ecx,ecx
    3c1d:	31 d2                	xor    edx,edx
    3c1f:	31 f6                	xor    esi,esi
    3c21:	4c 89 e7             	mov    rdi,r12
    3c24:	41 c7 45 14 00 00 00 	mov    DWORD PTR [r13+0x14],0x0
    3c2b:	00 
    3c2c:	49 be b9 1e e5 f7 ff 	movabs r14,0x7ffff7e51eb9
    3c33:	7f 00 00 
    3c36:	4d 8d 6d f8          	lea    r13,[r13-0x8]
    3c3a:	4d 89 75 00          	mov    QWORD PTR [r13+0x0],r14
    3c3e:	e9 4f 4f 00 00       	jmp    0x8b92
    3c43:	49 be b9 1e e5 f7 ff 	movabs r14,0x7ffff7e51eb9
    3c4a:	7f 00 00 
    3c4d:	49 ff c3             	inc    r11
    3c50:	49 f7 c3 00 00 00 01 	test   r11,0x1000000
    3c57:	0f 85 e8 51 00 00    	jne    0x8e45
    3c5d:	eb b9                	jmp    0x3c18
    3c5f:	49 be c2 1e e5 f7 ff 	movabs r14,0x7ffff7e51ec2
    3c66:	7f 00 00 
    3c69:	49 8d be 3e a1 00 00 	lea    rdi,[r14+0xa13e]
    3c70:	49 be c7 1e e5 f7 ff 	movabs r14,0x7ffff7e51ec7
    3c77:	7f 00 00 
    3c7a:	4d 8d 6d f8          	lea    r13,[r13-0x8]
    3c7e:	4d 89 75 00          	mov    QWORD PTR [r13+0x0],r14
    3c82:	e9 f5 4f 00 00       	jmp    0x8c7c
    3c87:	49 be c7 1e e5 f7 ff 	movabs r14,0x7ffff7e51ec7
    3c8e:	7f 00 00 
    3c91:	49 ff c3             	inc    r11
    3c94:	49 f7 c3 00 00 00 01 	test   r11,0x1000000
    3c9b:	0f 85 a4 51 00 00    	jne    0x8e45
    3ca1:	90                   	nop
    3ca2:	83 f8 fd             	cmp    eax,0xfffffffd
    3ca5:	0f 85 68 ff ff ff    	jne    0x3c13
    3cab:	49 be d5 1e e5 f7 ff 	movabs r14,0x7ffff7e51ed5
    3cb2:	7f 00 00 
    3cb5:	49 ff c3             	inc    r11
    3cb8:	49 f7 c3 00 00 00 01 	test   r11,0x1000000
    3cbf:	0f 85 80 51 00 00    	jne    0x8e45
    3cc5:	45 85 c0             	test   r8d,r8d
    3cc8:	0f 84 45 ff ff ff    	je     0x3c13
    3cce:	49 be e1 1e e5 f7 ff 	movabs r14,0x7ffff7e51ee1
    3cd5:	7f 00 00 
    3cd8:	49 8d 8e ef b0 00 00 	lea    rcx,[r14+0xb0ef]
    3cdf:	ba ac 01 00 00       	mov    edx,0x1ac
    3ce4:	49 be ed 1e e5 f7 ff 	movabs r14,0x7ffff7e51eed
    3ceb:	7f 00 00 
    3cee:	49 8d b6 0d a7 00 00 	lea    rsi,[r14+0xa70d]
    3cf5:	49 be f4 1e e5 f7 ff 	movabs r14,0x7ffff7e51ef4
    3cfc:	7f 00 00 
    3cff:	49 8d be 23 a7 00 00 	lea    rdi,[r14+0xa723]
    3d06:	49 be f9 1e e5 f7 ff 	movabs r14,0x7ffff7e51ef9
    3d0d:	7f 00 00 
    3d10:	4d 8d 6d f8          	lea    r13,[r13-0x8]
    3d14:	4d 89 75 00          	mov    QWORD PTR [r13+0x0],r14
    3d18:	e9 c7 4f 00 00       	jmp    0x8ce4
    3d1d:	49 be 00 1f e5 f7 ff 	movabs r14,0x7ffff7e51f00
    3d24:	7f 00 00 
    3d27:	49 8d 8e d0 b0 00 00 	lea    rcx,[r14+0xb0d0]
    3d2e:	ba a7 01 00 00       	mov    edx,0x1a7
    3d33:	49 be 0c 1f e5 f7 ff 	movabs r14,0x7ffff7e51f0c
    3d3a:	7f 00 00 
    3d3d:	49 8d b6 ee a6 00 00 	lea    rsi,[r14+0xa6ee]
    3d44:	49 be 13 1f e5 f7 ff 	movabs r14,0x7ffff7e51f13
    3d4b:	7f 00 00 
    3d4e:	49 8d be 1d a6 00 00 	lea    rdi,[r14+0xa61d]
    3d55:	49 be 18 1f e5 f7 ff 	movabs r14,0x7ffff7e51f18
    3d5c:	7f 00 00 
    3d5f:	4d 8d 6d f8          	lea    r13,[r13-0x8]
    3d63:	4d 89 75 00          	mov    QWORD PTR [r13+0x0],r14
    3d67:	e9 78 4f 00 00       	jmp    0x8ce4
    3d6c:	90                   	nop
    3d6d:	41 c7 44 24 04 00 00 	mov    DWORD PTR [r12+0x4],0x0
    3d74:	00 00 
    3d76:	45 31 d2             	xor    r10d,r10d
    3d79:	31 d2                	xor    edx,edx
    3d7b:	4c 89 e7             	mov    rdi,r12
    3d7e:	be 07 00 00 00       	mov    esi,0x7
    3d83:	b8 ca 00 00 00       	mov    eax,0xca
    3d88:	49 be 39 1f e5 f7 ff 	movabs r14,0x7ffff7e51f39
    3d8f:	7f 00 00 
    3d92:	e9 93 50 00 00       	jmp    0x8e2a
    3d97:	49 be 3b 1f e5 f7 ff 	movabs r14,0x7ffff7e51f3b
    3d9e:	7f 00 00 
    3da1:	49 ff c3             	inc    r11
    3da4:	49 f7 c3 00 00 00 01 	test   r11,0x1000000
    3dab:	0f 85 94 50 00 00    	jne    0x8e45
    3db1:	48 3d 00 f0 ff ff    	cmp    rax,0xfffffffffffff000
    3db7:	0f 87 8b 00 00 00    	ja     0x3e48
    3dbd:	49 be 43 1f e5 f7 ff 	movabs r14,0x7ffff7e51f43
    3dc4:	7f 00 00 
    3dc7:	49 ff c3             	inc    r11
    3dca:	49 f7 c3 00 00 00 01 	test   r11,0x1000000
    3dd1:	0f 85 6e 50 00 00    	jne    0x8e45
    3dd7:	4c 8b 75 80          	mov    r14,QWORD PTR [rbp-0x80]
    3ddb:	49 c7 86 f0 02 00 00 	mov    QWORD PTR [r14+0x2f0],0x0
    3de2:	00 00 00 00 
    3de6:	4c 8b 7d b0          	mov    r15,QWORD PTR [rbp-0x50]
    3dea:	41 bf 83 00 00 00    	mov    r15d,0x83
    3df0:	4c 89 7d b0          	mov    QWORD PTR [rbp-0x50],r15
    3df4:	e9 dc f1 ff ff       	jmp    0x2fd5
    3df9:	49 be 62 1f e5 f7 ff 	movabs r14,0x7ffff7e51f62
    3e00:	7f 00 00 
    3e03:	49 8d 8e 6e b0 00 00 	lea    rcx,[r14+0xb06e]
    3e0a:	ba 48 02 00 00       	mov    edx,0x248
    3e0f:	49 be 6e 1f e5 f7 ff 	movabs r14,0x7ffff7e51f6e
    3e16:	7f 00 00 
    3e19:	49 8d b6 8c a6 00 00 	lea    rsi,[r14+0xa68c]
    3e20:	49 be 75 1f e5 f7 ff 	movabs r14,0x7ffff7e51f75
    3e27:	7f 00 00 
    3e2a:	49 8d be b8 a6 00 00 	lea    rdi,[r14+0xa6b8]
    3e31:	49 be 7a 1f e5 f7 ff 	movabs r14,0x7ffff7e51f7a
    3e38:	7f 00 00 
    3e3b:	4d 8d 6d f8          	lea    r13,[r13-0x8]
    3e3f:	4d 89 75 00          	mov    QWORD PTR [r13+0x0],r14
    3e43:	e9 9c 4e 00 00       	jmp    0x8ce4
    3e48:	49 be 7a 1f e5 f7 ff 	movabs r14,0x7ffff7e51f7a
    3e4f:	7f 00 00 
    3e52:	49 ff c3             	inc    r11
    3e55:	49 f7 c3 00 00 00 01 	test   r11,0x1000000
    3e5c:	0f 85 e3 4f 00 00    	jne    0x8e45
    3e62:	83 f8 92             	cmp    eax,0xffffff92
    3e65:	0f 84 52 ff ff ff    	je     0x3dbd
    3e6b:	49 be 7f 1f e5 f7 ff 	movabs r14,0x7ffff7e51f7f
    3e72:	7f 00 00 
    3e75:	49 ff c3             	inc    r11
    3e78:	49 f7 c3 00 00 00 01 	test   r11,0x1000000
    3e7f:	0f 85 c0 4f 00 00    	jne    0x8e45
    3e85:	83 c0 26             	add    eax,0x26
    3e88:	83 f8 26             	cmp    eax,0x26
    3e8b:	0f 87 ce fd ff ff    	ja     0x3c5f
    3e91:	49 be 8b 1f e5 f7 ff 	movabs r14,0x7ffff7e51f8b
    3e98:	7f 00 00 
    3e9b:	49 ff c3             	inc    r11
    3e9e:	49 f7 c3 00 00 00 01 	test   r11,0x1000000
    3ea5:	0f 85 9a 4f 00 00    	jne    0x8e45
    3eab:	83 f8 25             	cmp    eax,0x25
    3eae:	0f 87 ab fd ff ff    	ja     0x3c5f
    3eb4:	49 be 94 1f e5 f7 ff 	movabs r14,0x7ffff7e51f94
    3ebb:	7f 00 00 
    3ebe:	49 ff c3             	inc    r11
    3ec1:	49 f7 c3 00 00 00 01 	test   r11,0x1000000
    3ec8:	0f 85 77 4f 00 00    	jne    0x8e45
    3ece:	49 be 9b 1f e5 f7 ff 	movabs r14,0x7ffff7e51f9b
    3ed5:	7f 00 00 
    3ed8:	49 8d 96 59 af 00 00 	lea    rdx,[r14+0xaf59]
    3edf:	48 63 04 82          	movsxd rax,DWORD PTR [rdx+rax*4]
    3ee3:	48 01 d0             	add    rax,rdx
    3ee6:	49 89 c6             	mov    r14,rax
    3ee9:	e9 0d 4b 00 00       	jmp    0x89fb
    3eee:	49 be a5 1f e5 f7 ff 	movabs r14,0x7ffff7e51fa5
    3ef5:	7f 00 00 
    3ef8:	49 ff c3             	inc    r11
    3efb:	49 f7 c3 00 00 00 01 	test   r11,0x1000000
    3f02:	0f 85 3d 4f 00 00    	jne    0x8e45
    3f08:	41 c7 44 24 04 00 00 	mov    DWORD PTR [r12+0x4],0x0
    3f0f:	00 00 
    3f11:	41 87 14 24          	xchg   DWORD PTR [r12],edx
    3f15:	83 fa 01             	cmp    edx,0x1
    3f18:	0f 8e 9f fe ff ff    	jle    0x3dbd
    3f1e:	45 31 d2             	xor    r10d,r10d
    3f21:	ba 01 00 00 00       	mov    edx,0x1
    3f26:	be 01 00 00 00       	mov    esi,0x1
    3f2b:	4c 89 e7             	mov    rdi,r12
    3f2e:	b8 ca 00 00 00       	mov    eax,0xca
    3f33:	49 be c9 1f e5 f7 ff 	movabs r14,0x7ffff7e51fc9
    3f3a:	7f 00 00 
    3f3d:	e9 e8 4e 00 00       	jmp    0x8e2a
    3f42:	49 be cb 1f e5 f7 ff 	movabs r14,0x7ffff7e51fcb
    3f49:	7f 00 00 
    3f4c:	49 ff c3             	inc    r11
    3f4f:	49 f7 c3 00 00 00 01 	test   r11,0x1000000
    3f56:	0f 85 e9 4e 00 00    	jne    0x8e45
    3f5c:	e9 5c fe ff ff       	jmp    0x3dbd
    3f61:	49 be d5 1f e5 f7 ff 	movabs r14,0x7ffff7e51fd5
    3f68:	7f 00 00 
    3f6b:	4d 8d 6d f8          	lea    r13,[r13-0x8]
    3f6f:	4d 89 75 00          	mov    QWORD PTR [r13+0x0],r14
    3f73:	e9 d4 4d 00 00       	jmp    0x8d4c
    3f78:	49 be d5 1f e5 f7 ff 	movabs r14,0x7ffff7e51fd5
    3f7f:	7f 00 00 
    3f82:	49 ff c3             	inc    r11
    3f85:	49 f7 c3 00 00 00 01 	test   r11,0x1000000
    3f8c:	0f 85 b3 4e 00 00    	jne    0x8e45
    3f92:	90                   	nop
    3f93:	90                   	nop
    3f94:	8b 47 10             	mov    eax,DWORD PTR [rdi+0x10]
    3f97:	89 c2                	mov    edx,eax
    3f99:	81 e2 7f 01 00 00    	and    edx,0x17f
    3f9f:	90                   	nop
    3fa0:	83 e0 7c             	and    eax,0x7c
    3fa3:	0f 85 a6 00 00 00    	jne    0x404f
    3fa9:	49 be f5 1f e5 f7 ff 	movabs r14,0x7ffff7e51ff5
    3fb0:	7f 00 00 
    3fb3:	49 ff c3             	inc    r11
    3fb6:	49 f7 c3 00 00 00 01 	test   r11,0x1000000
    3fbd:	0f 85 82 4e 00 00    	jne    0x8e45
    3fc3:	4d 8d 6d f8          	lea    r13,[r13-0x8]
    3fc7:	49 89 5d 00          	mov    QWORD PTR [r13+0x0],rbx
    3fcb:	49 83 ed 10          	sub    r13,0x10
    3fcf:	85 d2                	test   edx,edx
    3fd1:	0f 85 97 00 00 00    	jne    0x406e
    3fd7:	49 be fe 1f e5 f7 ff 	movabs r14,0x7ffff7e51ffe
    3fde:	7f 00 00 
    3fe1:	49 ff c3             	inc    r11
    3fe4:	49 f7 c3 00 00 00 01 	test   r11,0x1000000
    3feb:	0f 85 54 4e 00 00    	jne    0x8e45
    3ff1:	b8 02 00 00 00       	mov    eax,0x2
    3ff6:	87 07                	xchg   DWORD PTR [rdi],eax
    3ff8:	85 c0                	test   eax,eax
    3ffa:	0f 85 ff 00 00 00    	jne    0x40ff
    4000:	49 be 09 20 e5 f7 ff 	movabs r14,0x7ffff7e52009
    4007:	7f 00 00 
    400a:	49 ff c3             	inc    r11
    400d:	49 f7 c3 00 00 00 01 	test   r11,0x1000000
    4014:	0f 85 2b 4e 00 00    	jne    0x8e45
    401a:	8b 57 08             	mov    edx,DWORD PTR [rdi+0x8]
    401d:	85 d2                	test   edx,edx
    401f:	0f 85 73 03 00 00    	jne    0x4398
    4025:	4c 8b 75 80          	mov    r14,QWORD PTR [rbp-0x80]
    4029:	41 8b 86 d0 02 00 00 	mov    eax,DWORD PTR [r14+0x2d0]
    4030:	89 47 08             	mov    DWORD PTR [rdi+0x8],eax
    4033:	90                   	nop
    4034:	31 c0                	xor    eax,eax
    4036:	49 83 c5 10          	add    r13,0x10
    403a:	49 8b 5d 00          	mov    rbx,QWORD PTR [r13+0x0]
    403e:	4d 8d 6d 08          	lea    r13,[r13+0x8]
    4042:	4d 8b 75 00          	mov    r14,QWORD PTR [r13+0x0]
    4046:	4d 8d 6d 08          	lea    r13,[r13+0x8]
    404a:	e9 a6 47 00 00       	jmp    0x87f5
    404f:	49 be 30 20 e5 f7 ff 	movabs r14,0x7ffff7e52030
    4056:	7f 00 00 
    4059:	49 ff c3             	inc    r11
    405c:	49 f7 c3 00 00 00 01 	test   r11,0x1000000
    4063:	0f 85 dc 4d 00 00    	jne    0x8e45
    4069:	e9 24 ed ff ff       	jmp    0x2d92
    406e:	49 be 38 20 e5 f7 ff 	movabs r14,0x7ffff7e52038
    4075:	7f 00 00 
    4078:	49 ff c3             	inc    r11
    407b:	49 f7 c3 00 00 00 01 	test   r11,0x1000000
    4082:	0f 85 bd 4d 00 00    	jne    0x8e45
    4088:	81 fa 00 01 00 00    	cmp    edx,0x100
    408e:	0f 85 b2 00 00 00    	jne    0x4146
    4094:	49 be 40 20 e5 f7 ff 	movabs r14,0x7ffff7e52040
    409b:	7f 00 00 
    409e:	49 ff c3             	inc    r11
    40a1:	49 f7 c3 00 00 00 01 	test   r11,0x1000000
    40a8:	0f 85 97 4d 00 00    	jne    0x8e45
    40ae:	90                   	nop
    40af:	b8 02 00 00 00       	mov    eax,0x2
    40b4:	87 07                	xchg   DWORD PTR [rdi],eax
    40b6:	85 c0                	test   eax,eax
    40b8:	0f 84 78 ff ff ff    	je     0x4036
    40be:	8b 77 10             	mov    esi,DWORD PTR [rdi+0x10]
    40c1:	81 e6 80 00 00 00    	and    esi,0x80
    40c7:	49 be 5d 20 e5 f7 ff 	movabs r14,0x7ffff7e5205d
    40ce:	7f 00 00 
    40d1:	4d 8d 6d f8          	lea    r13,[r13-0x8]
    40d5:	4d 89 75 00          	mov    QWORD PTR [r13+0x0],r14
    40d9:	e9 3a 4c 00 00       	jmp    0x8d18
    40de:	49 be 5d 20 e5 f7 ff 	movabs r14,0x7ffff7e5205d
    40e5:	7f 00 00 
    40e8:	49 ff c3             	inc    r11
    40eb:	49 f7 c3 00 00 00 01 	test   r11,0x1000000
    40f2:	0f 85 4d 4d 00 00    	jne    0x8e45
    40f8:	31 c0                	xor    eax,eax
    40fa:	e9 37 ff ff ff       	jmp    0x4036
    40ff:	8b 77 10             	mov    esi,DWORD PTR [rdi+0x10]
    4102:	49 89 7d 08          	mov    QWORD PTR [r13+0x8],rdi
    4106:	81 e6 80 00 00 00    	and    esi,0x80
    410c:	49 be 7b 20 e5 f7 ff 	movabs r14,0x7ffff7e5207b
    4113:	7f 00 00 
    4116:	4d 8d 6d f8          	lea    r13,[r13-0x8]
    411a:	4d 89 75 00          	mov    QWORD PTR [r13+0x0],r14
    411e:	e9 f5 4b 00 00       	jmp    0x8d18
    4123:	49 be 7b 20 e5 f7 ff 	movabs r14,0x7ffff7e5207b
    412a:	7f 00 00 
    412d:	49 ff c3             	inc    r11
    4130:	49 f7 c3 00 00 00 01 	test   r11,0x1000000
    4137:	0f 85 08 4d 00 00    	jne    0x8e45
    413d:	49 8b 7d 08          	mov    rdi,QWORD PTR [r13+0x8]
    4141:	e9 ba fe ff ff       	jmp    0x4000
    4146:	49 be 82 20 e5 f7 ff 	movabs r14,0x7ffff7e52082
    414d:	7f 00 00 
    4150:	49 ff c3             	inc    r11
    4153:	49 f7 c3 00 00 00 01 	test   r11,0x1000000
    415a:	0f 85 e5 4c 00 00    	jne    0x8e45
    4160:	8b 57 10             	mov    edx,DWORD PTR [rdi+0x10]
    4163:	83 e2 7f             	and    edx,0x7f
    4166:	83 fa 01             	cmp    edx,0x1
    4169:	0f 85 eb 00 00 00    	jne    0x425a
    416f:	49 be 8d 20 e5 f7 ff 	movabs r14,0x7ffff7e5208d
    4176:	7f 00 00 
    4179:	49 ff c3             	inc    r11
    417c:	49 f7 c3 00 00 00 01 	test   r11,0x1000000
    4183:	0f 85 bc 4c 00 00    	jne    0x8e45
    4189:	4c 8b 75 80          	mov    r14,QWORD PTR [rbp-0x80]
    418d:	41 8b 86 d0 02 00 00 	mov    eax,DWORD PTR [r14+0x2d0]
    4194:	39 47 08             	cmp    DWORD PTR [rdi+0x8],eax
    4197:	74 74                	je     0x420d
    4199:	49 be 9a 20 e5 f7 ff 	movabs r14,0x7ffff7e5209a
    41a0:	7f 00 00 
    41a3:	49 ff c3             	inc    r11
    41a6:	49 f7 c3 00 00 00 01 	test   r11,0x1000000
    41ad:	0f 85 92 4c 00 00    	jne    0x8e45
    41b3:	b8 02 00 00 00       	mov    eax,0x2
    41b8:	87 07                	xchg   DWORD PTR [rdi],eax
    41ba:	85 c0                	test   eax,eax
    41bc:	0f 85 8f 01 00 00    	jne    0x4351
    41c2:	49 be a9 20 e5 f7 ff 	movabs r14,0x7ffff7e520a9
    41c9:	7f 00 00 
    41cc:	49 ff c3             	inc    r11
    41cf:	49 f7 c3 00 00 00 01 	test   r11,0x1000000
    41d6:	0f 85 69 4c 00 00    	jne    0x8e45
    41dc:	8b 47 08             	mov    eax,DWORD PTR [rdi+0x8]
    41df:	85 c0                	test   eax,eax
    41e1:	0f 85 9f 02 00 00    	jne    0x4486
    41e7:	49 be b4 20 e5 f7 ff 	movabs r14,0x7ffff7e520b4
    41ee:	7f 00 00 
    41f1:	49 ff c3             	inc    r11
    41f4:	49 f7 c3 00 00 00 01 	test   r11,0x1000000
    41fb:	0f 85 44 4c 00 00    	jne    0x8e45
    4201:	c7 47 04 01 00 00 00 	mov    DWORD PTR [rdi+0x4],0x1
    4208:	e9 18 fe ff ff       	jmp    0x4025
    420d:	49 be c0 20 e5 f7 ff 	movabs r14,0x7ffff7e520c0
    4214:	7f 00 00 
    4217:	49 ff c3             	inc    r11
    421a:	49 f7 c3 00 00 00 01 	test   r11,0x1000000
    4221:	0f 85 1e 4c 00 00    	jne    0x8e45
    4227:	8b 47 04             	mov    eax,DWORD PTR [rdi+0x4]
    422a:	83 f8 ff             	cmp    eax,0xffffffff
    422d:	0f 84 b4 01 00 00    	je     0x43e7
    4233:	49 be cc 20 e5 f7 ff 	movabs r14,0x7ffff7e520cc
    423a:	7f 00 00 
    423d:	49 ff c3             	inc    r11
    4240:	49 f7 c3 00 00 00 01 	test   r11,0x1000000
    4247:	0f 85 f8 4b 00 00    	jne    0x8e45
    424d:	83 c0 01             	add    eax,0x1
    4250:	89 47 04             	mov    DWORD PTR [rdi+0x4],eax
    4253:	31 c0                	xor    eax,eax
    4255:	e9 dc fd ff ff       	jmp    0x4036
    425a:	49 be d9 20 e5 f7 ff 	movabs r14,0x7ffff7e520d9
    4261:	7f 00 00 
    4264:	49 ff c3             	inc    r11
    4267:	49 f7 c3 00 00 00 01 	test   r11,0x1000000
    426e:	0f 85 d1 4b 00 00    	jne    0x8e45
    4274:	8b 57 10             	mov    edx,DWORD PTR [rdi+0x10]
    4277:	83 e2 7f             	and    edx,0x7f
    427a:	83 fa 03             	cmp    edx,0x3
    427d:	0f 85 88 01 00 00    	jne    0x440b
    4283:	49 be e8 20 e5 f7 ff 	movabs r14,0x7ffff7e520e8
    428a:	7f 00 00 
    428d:	49 ff c3             	inc    r11
    4290:	49 f7 c3 00 00 00 01 	test   r11,0x1000000
    4297:	0f 85 a8 4b 00 00    	jne    0x8e45
    429d:	49 be ef 20 e5 f7 ff 	movabs r14,0x7ffff7e520ef
    42a4:	7f 00 00 
    42a7:	41 83 be 15 53 01 00 	cmp    DWORD PTR [r14+0x15315],0x0
    42ae:	00 
    42af:	0f 84 22 fd ff ff    	je     0x3fd7
    42b5:	49 be f5 20 e5 f7 ff 	movabs r14,0x7ffff7e520f5
    42bc:	7f 00 00 
    42bf:	49 ff c3             	inc    r11
    42c2:	49 f7 c3 00 00 00 01 	test   r11,0x1000000
    42c9:	0f 85 76 4b 00 00    	jne    0x8e45
    42cf:	ba 02 00 00 00       	mov    edx,0x2
    42d4:	f0 0f b1 17          	lock cmpxchg DWORD PTR [rdi],edx
    42d8:	0f 85 f7 01 00 00    	jne    0x44d5
    42de:	49 be 04 21 e5 f7 ff 	movabs r14,0x7ffff7e52104
    42e5:	7f 00 00 
    42e8:	49 ff c3             	inc    r11
    42eb:	49 f7 c3 00 00 00 01 	test   r11,0x1000000
    42f2:	0f 85 4d 4b 00 00    	jne    0x8e45
    42f8:	83 7f 08 00          	cmp    DWORD PTR [rdi+0x8],0x0
    42fc:	0f 84 23 fd ff ff    	je     0x4025
    4302:	49 be 15 21 e5 f7 ff 	movabs r14,0x7ffff7e52115
    4309:	7f 00 00 
    430c:	49 8d 8e db ae 00 00 	lea    rcx,[r14+0xaedb]
    4313:	ba 90 00 00 00       	mov    edx,0x90
    4318:	49 be 21 21 e5 f7 ff 	movabs r14,0x7ffff7e52121
    431f:	7f 00 00 
    4322:	49 8d b6 d9 a4 00 00 	lea    rsi,[r14+0xa4d9]
    4329:	49 be 28 21 e5 f7 ff 	movabs r14,0x7ffff7e52128
    4330:	7f 00 00 
    4333:	49 8d be 05 a5 00 00 	lea    rdi,[r14+0xa505]
    433a:	49 be 2d 21 e5 f7 ff 	movabs r14,0x7ffff7e5212d
    4341:	7f 00 00 
    4344:	4d 8d 6d f8          	lea    r13,[r13-0x8]
    4348:	4d 89 75 00          	mov    QWORD PTR [r13+0x0],r14
    434c:	e9 93 49 00 00       	jmp    0x8ce4
    4351:	8b 77 10             	mov    esi,DWORD PTR [rdi+0x10]
    4354:	49 89 7d 08          	mov    QWORD PTR [r13+0x8],rdi
    4358:	81 e6 80 00 00 00    	and    esi,0x80
    435e:	49 be 40 21 e5 f7 ff 	movabs r14,0x7ffff7e52140
    4365:	7f 00 00 
    4368:	4d 8d 6d f8          	lea    r13,[r13-0x8]
    436c:	4d 89 75 00          	mov    QWORD PTR [r13+0x0],r14
    4370:	e9 a3 49 00 00       	jmp    0x8d18
    4375:	49 be 40 21 e5 f7 ff 	movabs r14,0x7ffff7e52140
    437c:	7f 00 00 
    437f:	49 ff c3             	inc    r11
    4382:	49 f7 c3 00 00 00 01 	test   r11,0x1000000
    4389:	0f 85 b6 4a 00 00    	jne    0x8e45
    438f:	49 8b 7d 08          	mov    rdi,QWORD PTR [r13+0x8]
    4393:	e9 2a fe ff ff       	jmp    0x41c2
    4398:	49 be 51 21 e5 f7 ff 	movabs r14,0x7ffff7e52151
    439f:	7f 00 00 
    43a2:	49 8d 8e 9f ae 00 00 	lea    rcx,[r14+0xae9f]
    43a9:	ba 51 00 00 00       	mov    edx,0x51
    43ae:	49 be 5d 21 e5 f7 ff 	movabs r14,0x7ffff7e5215d
    43b5:	7f 00 00 
    43b8:	49 8d b6 9d a4 00 00 	lea    rsi,[r14+0xa49d]
    43bf:	49 be 64 21 e5 f7 ff 	movabs r14,0x7ffff7e52164
    43c6:	7f 00 00 
    43c9:	49 8d be c9 a4 00 00 	lea    rdi,[r14+0xa4c9]
    43d0:	49 be 69 21 e5 f7 ff 	movabs r14,0x7ffff7e52169
    43d7:	7f 00 00 
    43da:	4d 8d 6d f8          	lea    r13,[r13-0x8]
    43de:	4d 89 75 00          	mov    QWORD PTR [r13+0x0],r14
    43e2:	e9 fd 48 00 00       	jmp    0x8ce4
    43e7:	49 be 69 21 e5 f7 ff 	movabs r14,0x7ffff7e52169
    43ee:	7f 00 00 
    43f1:	49 ff c3             	inc    r11
    43f4:	49 f7 c3 00 00 00 01 	test   r11,0x1000000
    43fb:	0f 85 44 4a 00 00    	jne    0x8e45
    4401:	b8 0b 00 00 00       	mov    eax,0xb
    4406:	e9 2b fc ff ff       	jmp    0x4036
    440b:	49 be 73 21 e5 f7 ff 	movabs r14,0x7ffff7e52173
    4412:	7f 00 00 
    4415:	49 ff c3             	inc    r11
    4418:	49 f7 c3 00 00 00 01 	test   r11,0x1000000
    441f:	0f 85 20 4a 00 00    	jne    0x8e45
    4425:	4c 8b 75 80          	mov    r14,QWORD PTR [rbp-0x80]
    4429:	41 8b 96 d0 02 00 00 	mov    edx,DWORD PTR [r14+0x2d0]
    4430:	8b 47 10             	mov    eax,DWORD PTR [rdi+0x10]
    4433:	83 e0 7f             	and    eax,0x7f
    4436:	83 f8 02             	cmp    eax,0x2
    4439:	0f 85 42 01 00 00    	jne    0x4581
    443f:	49 be 86 21 e5 f7 ff 	movabs r14,0x7ffff7e52186
    4446:	7f 00 00 
    4449:	49 ff c3             	inc    r11
    444c:	49 f7 c3 00 00 00 01 	test   r11,0x1000000
    4453:	0f 85 ec 49 00 00    	jne    0x8e45
    4459:	39 57 08             	cmp    DWORD PTR [rdi+0x8],edx
    445c:	0f 85 75 fb ff ff    	jne    0x3fd7
    4462:	49 be 8f 21 e5 f7 ff 	movabs r14,0x7ffff7e5218f
    4469:	7f 00 00 
    446c:	49 ff c3             	inc    r11
    446f:	49 f7 c3 00 00 00 01 	test   r11,0x1000000
    4476:	0f 85 c9 49 00 00    	jne    0x8e45
    447c:	b8 23 00 00 00       	mov    eax,0x23
    4481:	e9 b0 fb ff ff       	jmp    0x4036
    4486:	49 be a0 21 e5 f7 ff 	movabs r14,0x7ffff7e521a0
    448d:	7f 00 00 
    4490:	49 8d 8e 50 ae 00 00 	lea    rcx,[r14+0xae50]
    4497:	ba 75 00 00 00       	mov    edx,0x75
    449c:	49 be ac 21 e5 f7 ff 	movabs r14,0x7ffff7e521ac
    44a3:	7f 00 00 
    44a6:	49 8d b6 4e a4 00 00 	lea    rsi,[r14+0xa44e]
    44ad:	49 be b3 21 e5 f7 ff 	movabs r14,0x7ffff7e521b3
    44b4:	7f 00 00 
    44b7:	49 8d be 7a a4 00 00 	lea    rdi,[r14+0xa47a]
    44be:	49 be b8 21 e5 f7 ff 	movabs r14,0x7ffff7e521b8
    44c5:	7f 00 00 
    44c8:	4d 8d 6d f8          	lea    r13,[r13-0x8]
    44cc:	4d 89 75 00          	mov    QWORD PTR [r13+0x0],r14
    44d0:	e9 0f 48 00 00       	jmp    0x8ce4
    44d5:	0f bf 47 14          	movsx  eax,WORD PTR [rdi+0x14]
    44d9:	49 be c3 21 e5 f7 ff 	movabs r14,0x7ffff7e521c3
    44e0:	7f 00 00 
    44e3:	41 0f bf 96 35 11 01 	movsx  edx,WORD PTR [r14+0x11135]
    44ea:	00 
    44eb:	b9 02 00 00 00       	mov    ecx,0x2
    44f0:	8d 04 45 0a 00 00 00 	lea    eax,[rax*2+0xa]
    44f7:	39 d0                	cmp    eax,edx
    44f9:	0f 4e d0             	cmovle edx,eax
    44fc:	31 db                	xor    ebx,ebx
    44fe:	31 f6                	xor    esi,esi
    4500:	49 be d5 21 e5 f7 ff 	movabs r14,0x7ffff7e521d5
    4507:	7f 00 00 
    450a:	49 ff c3             	inc    r11
    450d:	49 f7 c3 00 00 00 01 	test   r11,0x1000000
    4514:	0f 85 2b 49 00 00    	jne    0x8e45
    451a:	89 d8                	mov    eax,ebx
    451c:	83 c3 01             	add    ebx,0x1
    451f:	39 d0                	cmp    eax,edx
    4521:	0f 8d a9 00 00 00    	jge    0x45d0
    4527:	49 be de 21 e5 f7 ff 	movabs r14,0x7ffff7e521de
    452e:	7f 00 00 
    4531:	49 ff c3             	inc    r11
    4534:	49 f7 c3 00 00 00 01 	test   r11,0x1000000
    453b:	0f 85 04 49 00 00    	jne    0x8e45
    4541:	90                   	nop
    4542:	89 f0                	mov    eax,esi
    4544:	f0 0f b1 0f          	lock cmpxchg DWORD PTR [rdi],ecx
    4548:	75 b6                	jne    0x4500
    454a:	49 be e8 21 e5 f7 ff 	movabs r14,0x7ffff7e521e8
    4551:	7f 00 00 
    4554:	49 ff c3             	inc    r11
    4557:	49 f7 c3 00 00 00 01 	test   r11,0x1000000
    455e:	0f 85 e1 48 00 00    	jne    0x8e45
    4564:	0f bf 47 14          	movsx  eax,WORD PTR [rdi+0x14]
    4568:	be 08 00 00 00       	mov    esi,0x8
    456d:	29 c3                	sub    ebx,eax
    456f:	89 c1                	mov    ecx,eax
    4571:	89 d8                	mov    eax,ebx
    4573:	99                   	cdq    
    4574:	f7 fe                	idiv   esi
    4576:	01 c8                	add    eax,ecx
    4578:	66 89 47 14          	mov    WORD PTR [rdi+0x14],ax
    457c:	e9 5d fd ff ff       	jmp    0x42de
    4581:	49 be 0c 22 e5 f7 ff 	movabs r14,0x7ffff7e5220c
    4588:	7f 00 00 
    458b:	49 8d 8e e4 ad 00 00 	lea    rcx,[r14+0xade4]
    4592:	ba 95 00 00 00       	mov    edx,0x95
    4597:	49 be 18 22 e5 f7 ff 	movabs r14,0x7ffff7e52218
    459e:	7f 00 00 
    45a1:	49 8d b6 e2 a3 00 00 	lea    rsi,[r14+0xa3e2]
    45a8:	49 be 1f 22 e5 f7 ff 	movabs r14,0x7ffff7e5221f
    45af:	7f 00 00 
    45b2:	49 8d be a1 a3 00 00 	lea    rdi,[r14+0xa3a1]
    45b9:	49 be 24 22 e5 f7 ff 	movabs r14,0x7ffff7e52224
    45c0:	7f 00 00 
    45c3:	4d 8d 6d f8          	lea    r13,[r13-0x8]
    45c7:	4d 89 75 00          	mov    QWORD PTR [r13+0x0],r14
    45cb:	e9 14 47 00 00       	jmp    0x8ce4
    45d0:	49 be 24 22 e5 f7 ff 	movabs r14,0x7ffff7e52224
    45d7:	7f 00 00 
    45da:	49 ff c3             	inc    r11
    45dd:	49 f7 c3 00 00 00 01 	test   r11,0x1000000
    45e4:	0f 85 5b 48 00 00    	jne    0x8e45
    45ea:	b8 02 00 00 00       	mov    eax,0x2
    45ef:	87 07                	xchg   DWORD PTR [rdi],eax
    45f1:	85 c0                	test   eax,eax
    45f3:	0f 84 51 ff ff ff    	je     0x454a
    45f9:	8b 77 10             	mov    esi,DWORD PTR [rdi+0x10]
    45fc:	49 89 7d 08          	mov    QWORD PTR [r13+0x8],rdi
    4600:	81 e6 80 00 00 00    	and    esi,0x80
    4606:	49 be 42 22 e5 f7 ff 	movabs r14,0x7ffff7e52242
    460d:	7f 00 00 
    4610:	4d 8d 6d f8          	lea    r13,[r13-0x8]
    4614:	4d 89 75 00          	mov    QWORD PTR [r13+0x0],r14
    4618:	e9 fb 46 00 00       	jmp    0x8d18
    461d:	49 be 42 22 e5 f7 ff 	movabs r14,0x7ffff7e52242
    4624:	7f 00 00 
    4627:	49 ff c3             	inc    r11
    462a:	49 f7 c3 00 00 00 01 	test   r11,0x1000000
    4631:	0f 85 0e 48 00 00    	jne    0x8e45
    4637:	49 8b 7d 08          	mov    rdi,QWORD PTR [r13+0x8]
    463b:	e9 0a ff ff ff       	jmp    0x454a
    4640:	49 be 60 41 e5 f7 ff 	movabs r14,0x7ffff7e54160
    4647:	7f 00 00 
    464a:	49 ff c3             	inc    r11
    464d:	49 f7 c3 00 00 00 01 	test   r11,0x1000000
    4654:	0f 85 eb 47 00 00    	jne    0x8e45
    465a:	90                   	nop
    465b:	4d 8d 6d f8          	lea    r13,[r13-0x8]
    465f:	4c 8b 75 b0          	mov    r14,QWORD PTR [rbp-0x50]
    4663:	4d 89 75 00          	mov    QWORD PTR [r13+0x0],r14
    4667:	4d 8d 6d f8          	lea    r13,[r13-0x8]
    466b:	4c 8b 7d a8          	mov    r15,QWORD PTR [rbp-0x58]
    466f:	4d 89 7d 00          	mov    QWORD PTR [r13+0x0],r15
    4673:	4d 8d 6d f8          	lea    r13,[r13-0x8]
    4677:	4c 89 75 b0          	mov    QWORD PTR [rbp-0x50],r14
    467b:	4c 8b 75 a0          	mov    r14,QWORD PTR [rbp-0x60]
    467f:	4d 89 75 00          	mov    QWORD PTR [r13+0x0],r14
    4683:	49 89 f6             	mov    r14,rsi
    4686:	4d 8d 6d f8          	lea    r13,[r13-0x8]
    468a:	4c 89 75 a0          	mov    QWORD PTR [rbp-0x60],r14
    468e:	4c 8b 75 98          	mov    r14,QWORD PTR [rbp-0x68]
    4692:	4d 89 75 00          	mov    QWORD PTR [r13+0x0],r14
    4696:	4d 8d 6d f8          	lea    r13,[r13-0x8]
    469a:	4d 89 65 00          	mov    QWORD PTR [r13+0x0],r12
    469e:	49 89 fc             	mov    r12,rdi
    46a1:	4d 8d 6d f8          	lea    r13,[r13-0x8]
    46a5:	49 89 5d 00          	mov    QWORD PTR [r13+0x0],rbx
    46a9:	49 81 ed 98 00 00 00 	sub    r13,0x98
    46b0:	4c 89 75 98          	mov    QWORD PTR [rbp-0x68],r14
    46b4:	4c 8b 75 80          	mov    r14,QWORD PTR [rbp-0x80]
    46b8:	49 8b 46 28          	mov    rax,QWORD PTR [r14+0x28]
    46bc:	49 89 85 88 00 00 00 	mov    QWORD PTR [r13+0x88],rax
    46c3:	31 c0                	xor    eax,eax
    46c5:	90                   	nop
    46c6:	bb 02 00 00 00       	mov    ebx,0x2
    46cb:	f0 48 0f c1 1f       	lock xadd QWORD PTR [rdi],rbx
    46d0:	41 bf 08 00 00 00    	mov    r15d,0x8
    46d6:	48 89 d8             	mov    rax,rbx
    46d9:	4c 89 75 80          	mov    QWORD PTR [rbp-0x80],r14
    46dd:	4c 8b 75 b0          	mov    r14,QWORD PTR [rbp-0x50]
    46e1:	41 89 de             	mov    r14d,ebx
    46e4:	4c 89 75 b0          	mov    QWORD PTR [rbp-0x50],r14
    46e8:	4c 8b 75 98          	mov    r14,QWORD PTR [rbp-0x68]
    46ec:	4c 8d 77 24          	lea    r14,[rdi+0x24]
    46f0:	48 d1 e8             	shr    rax,1
    46f3:	4c 89 75 98          	mov    QWORD PTR [rbp-0x68],r14
    46f7:	4c 8b 75 b0          	mov    r14,QWORD PTR [rbp-0x50]
    46fb:	41 83 e6 01          	and    r14d,0x1
    46ff:	49 89 45 00          	mov    QWORD PTR [r13+0x0],rax
    4703:	4c 89 75 b0          	mov    QWORD PTR [rbp-0x50],r14
    4707:	4c 8b 75 98          	mov    r14,QWORD PTR [rbp-0x68]
    470b:	f0 45 0f c1 3e       	lock xadd DWORD PTR [r14],r15d
    4710:	41 c7 45 0c 81 00 00 	mov    DWORD PTR [r13+0xc],0x81
    4717:	00 
    4718:	41 83 e7 01          	and    r15d,0x1
    471c:	4c 89 7d a8          	mov    QWORD PTR [rbp-0x58],r15
    4720:	4c 89 75 98          	mov    QWORD PTR [rbp-0x68],r14
    4724:	74 12                	je     0x4738
    4726:	4c 8b 75 a8          	mov    r14,QWORD PTR [rbp-0x58]
    472a:	45 89 75 0c          	mov    DWORD PTR [r13+0xc],r14d
    472e:	41 be 80 00 00 00    	mov    r14d,0x80
    4734:	4c 89 75 a8          	mov    QWORD PTR [rbp-0x58],r14
    4738:	31 f6                	xor    esi,esi
    473a:	4c 8b 75 a0          	mov    r14,QWORD PTR [rbp-0x60]
    473e:	4c 89 f7             	mov    rdi,r14
    4741:	49 bf dd 41 e5 f7 ff 	movabs r15,0x7ffff7e541dd
    4748:	7f 00 00 
    474b:	4d 8d 6d f8          	lea    r13,[r13-0x8]
    474f:	4d 89 7d 00          	mov    QWORD PTR [r13+0x0],r15
    4753:	4c 89 75 a0          	mov    QWORD PTR [rbp-0x60],r14
    4757:	e9 db df ff ff       	jmp    0x2737
    475c:	49 be dd 41 e5 f7 ff 	movabs r14,0x7ffff7e541dd
    4763:	7f 00 00 
    4766:	49 ff c3             	inc    r11
    4769:	49 f7 c3 00 00 00 01 	test   r11,0x1000000
    4770:	0f 85 cf 46 00 00    	jne    0x8e45
    4776:	85 c0                	test   eax,eax
    4778:	0f 85 8b 05 00 00    	jne    0x4d09
    477e:	49 be e5 41 e5 f7 ff 	movabs r14,0x7ffff7e541e5
    4785:	7f 00 00 
    4788:	49 ff c3             	inc    r11
    478b:	49 f7 c3 00 00 00 01 	test   r11,0x1000000
    4792:	0f 85 ad 46 00 00    	jne    0x8e45
    4798:	4c 8b 75 b0          	mov    r14,QWORD PTR [rbp-0x50]
    479c:	44 89 f0             	mov    eax,r14d
    479f:	4c 8d 0c 85 00 00 00 	lea    r9,[rax*4+0x0]
    47a6:	00 
    47a7:	49 89 45 10          	mov    QWORD PTR [r13+0x10],rax
    47ab:	4f 8d 74 21 28       	lea    r14,[r9+r12*1+0x28]
    47b0:	41 8b 06             	mov    eax,DWORD PTR [r14]
    47b3:	a8 01                	test   al,0x1
    47b5:	4c 89 75 b0          	mov    QWORD PTR [rbp-0x50],r14
    47b9:	0f 85 a2 00 00 00    	jne    0x4861
    47bf:	49 8d 4c 24 10       	lea    rcx,[r12+0x10]
    47c4:	4d 89 4d 20          	mov    QWORD PTR [r13+0x20],r9
    47c8:	49 89 4d 18          	mov    QWORD PTR [r13+0x18],rcx
    47cc:	49 89 5d 28          	mov    QWORD PTR [r13+0x28],rbx
    47d0:	4c 8b 75 a8          	mov    r14,QWORD PTR [rbp-0x58]
    47d4:	44 89 f3             	mov    ebx,r14d
    47d7:	4c 89 75 a8          	mov    QWORD PTR [rbp-0x58],r14
    47db:	49 be 17 42 e5 f7 ff 	movabs r14,0x7ffff7e54217
    47e2:	7f 00 00 
    47e5:	49 ff c3             	inc    r11
    47e8:	49 f7 c3 00 00 00 01 	test   r11,0x1000000
    47ef:	0f 85 50 46 00 00    	jne    0x8e45
    47f5:	85 c0                	test   eax,eax
    47f7:	0f 84 85 02 00 00    	je     0x4a82
    47fd:	49 be 1f 42 e5 f7 ff 	movabs r14,0x7ffff7e5421f
    4804:	7f 00 00 
    4807:	49 ff c3             	inc    r11
    480a:	49 f7 c3 00 00 00 01 	test   r11,0x1000000
    4811:	0f 85 2e 46 00 00    	jne    0x8e45
    4817:	8d 50 fe             	lea    edx,[rax-0x2]
    481a:	4c 8b 75 b0          	mov    r14,QWORD PTR [rbp-0x50]
    481e:	f0 41 0f b1 16       	lock cmpxchg DWORD PTR [r14],edx
    4823:	4c 89 75 b0          	mov    QWORD PTR [rbp-0x50],r14
    4827:	0f 85 ff 03 00 00    	jne    0x4c2c
    482d:	49 be 2d 42 e5 f7 ff 	movabs r14,0x7ffff7e5422d
    4834:	7f 00 00 
    4837:	49 ff c3             	inc    r11
    483a:	49 f7 c3 00 00 00 01 	test   r11,0x1000000
    4841:	0f 85 fe 45 00 00    	jne    0x8e45
    4847:	49 8b 54 24 08       	mov    rdx,QWORD PTR [r12+0x8]
    484c:	49 8d 4c 24 08       	lea    rcx,[r12+0x8]
    4851:	48 89 d0             	mov    rax,rdx
    4854:	48 d1 e8             	shr    rax,1
    4857:	49 39 45 00          	cmp    QWORD PTR [r13+0x0],rax
    485b:	0f 82 f3 00 00 00    	jb     0x4954
    4861:	49 be 41 42 e5 f7 ff 	movabs r14,0x7ffff7e54241
    4868:	7f 00 00 
    486b:	49 ff c3             	inc    r11
    486e:	49 f7 c3 00 00 00 01 	test   r11,0x1000000
    4875:	0f 85 ca 45 00 00    	jne    0x8e45
    487b:	b8 f8 ff ff ff       	mov    eax,0xfffffff8
    4880:	4c 8b 75 98          	mov    r14,QWORD PTR [rbp-0x68]
    4884:	f0 41 0f c1 06       	lock xadd DWORD PTR [r14],eax
    4889:	c1 e8 02             	shr    eax,0x2
    488c:	83 f8 03             	cmp    eax,0x3
    488f:	4c 89 75 98          	mov    QWORD PTR [rbp-0x68],r14
    4893:	0f 84 d4 03 00 00    	je     0x4c6d
    4899:	4c 8b 75 a0          	mov    r14,QWORD PTR [rbp-0x60]
    489d:	4c 89 f7             	mov    rdi,r14
    48a0:	49 bf 60 42 e5 f7 ff 	movabs r15,0x7ffff7e54260
    48a7:	7f 00 00 
    48aa:	4d 8d 6d f8          	lea    r13,[r13-0x8]
    48ae:	4d 89 7d 00          	mov    QWORD PTR [r13+0x0],r15
    48b2:	4c 89 75 a0          	mov    QWORD PTR [rbp-0x60],r14
    48b6:	e9 2a 45 00 00       	jmp    0x8de5
    48bb:	41 89 c0             	mov    r8d,eax
    48be:	49 be 63 42 e5 f7 ff 	movabs r14,0x7ffff7e54263
    48c5:	7f 00 00 
    48c8:	49 ff c3             	inc    r11
    48cb:	49 f7 c3 00 00 00 01 	test   r11,0x1000000
    48d2:	0f 85 6d 45 00 00    	jne    0x8e45
    48d8:	49 8b 85 88 00 00 00 	mov    rax,QWORD PTR [r13+0x88]
    48df:	4c 8b 75 80          	mov    r14,QWORD PTR [rbp-0x80]
    48e3:	49 33 46 28          	xor    rax,QWORD PTR [r14+0x28]
    48e7:	0f 85 7c 07 00 00    	jne    0x5069
    48ed:	49 81 c5 98 00 00 00 	add    r13,0x98
    48f4:	44 89 c0             	mov    eax,r8d
    48f7:	49 8b 5d 00          	mov    rbx,QWORD PTR [r13+0x0]
    48fb:	4d 8d 6d 08          	lea    r13,[r13+0x8]
    48ff:	4d 8b 65 00          	mov    r12,QWORD PTR [r13+0x0]
    4903:	4d 8d 6d 08          	lea    r13,[r13+0x8]
    4907:	4c 8b 75 98          	mov    r14,QWORD PTR [rbp-0x68]
    490b:	4d 8b 75 00          	mov    r14,QWORD PTR [r13+0x0]
    490f:	4d 8d 6d 08          	lea    r13,[r13+0x8]
    4913:	4c 8b 7d a0          	mov    r15,QWORD PTR [rbp-0x60]
    4917:	4d 8b 7d 00          	mov    r15,QWORD PTR [r13+0x0]
    491b:	4d 8d 6d 08          	lea    r13,[r13+0x8]
    491f:	4c 89 75 98          	mov    QWORD PTR [rbp-0x68],r14
    4923:	4c 8b 75 a8          	mov    r14,QWORD PTR [rbp-0x58]
    4927:	4d 8b 75 00          	mov    r14,QWORD PTR [r13+0x0]
    492b:	4d 8d 6d 08          	lea    r13,[r13+0x8]
    492f:	4c 89 75 a8          	mov    QWORD PTR [rbp-0x58],r14
    4933:	4c 8b 75 b0          	mov    r14,QWORD PTR [rbp-0x50]
    4937:	4d 8b 75 00          	mov    r14,QWORD PTR [r13+0x0]
    493b:	4d 8d 6d 08          	lea    r13,[r13+0x8]
    493f:	4c 89 75 b0          	mov    QWORD PTR [rbp-0x50],r14
    4943:	4d 8b 75 00          	mov    r14,QWORD PTR [r13+0x0]
    4947:	4d 8d 6d 08          	lea    r13,[r13+0x8]
    494b:	4c 89 7d a0          	mov    QWORD PTR [rbp-0x60],r15
    494f:	e9 9d 3c 00 00       	jmp    0x85f1
    4954:	49 be 90 42 e5 f7 ff 	movabs r14,0x7ffff7e54290
    495b:	7f 00 00 
    495e:	49 ff c3             	inc    r11
    4961:	49 f7 c3 00 00 00 01 	test   r11,0x1000000
    4968:	0f 85 d7 44 00 00    	jne    0x8e45
    496e:	48 89 d0             	mov    rax,rdx
    4971:	48 f7 d0             	not    rax
    4974:	83 e0 01             	and    eax,0x1
    4977:	49 39 45 10          	cmp    QWORD PTR [r13+0x10],rax
    497b:	0f 85 e0 fe ff ff    	jne    0x4861
    4981:	4c 8b 75 b0          	mov    r14,QWORD PTR [rbp-0x50]
    4985:	41 8b 06             	mov    eax,DWORD PTR [r14]
    4988:	4c 89 75 b0          	mov    QWORD PTR [rbp-0x50],r14
    498c:	49 be a3 42 e5 f7 ff 	movabs r14,0x7ffff7e542a3
    4993:	7f 00 00 
    4996:	49 ff c3             	inc    r11
    4999:	49 f7 c3 00 00 00 01 	test   r11,0x1000000
    49a0:	0f 85 9f 44 00 00    	jne    0x8e45
    49a6:	48 8b 31             	mov    rsi,QWORD PTR [rcx]
    49a9:	48 39 f2             	cmp    rdx,rsi
    49ac:	0f 85 af fe ff ff    	jne    0x4861
    49b2:	49 be ab 42 e5 f7 ff 	movabs r14,0x7ffff7e542ab
    49b9:	7f 00 00 
    49bc:	49 ff c3             	inc    r11
    49bf:	49 f7 c3 00 00 00 01 	test   r11,0x1000000
    49c6:	0f 85 79 44 00 00    	jne    0x8e45
    49cc:	a8 01                	test   al,0x1
    49ce:	75 2c                	jne    0x49fc
    49d0:	49 be af 42 e5 f7 ff 	movabs r14,0x7ffff7e542af
    49d7:	7f 00 00 
    49da:	49 ff c3             	inc    r11
    49dd:	49 f7 c3 00 00 00 01 	test   r11,0x1000000
    49e4:	0f 85 5b 44 00 00    	jne    0x8e45
    49ea:	8d 70 02             	lea    esi,[rax+0x2]
    49ed:	4c 8b 75 b0          	mov    r14,QWORD PTR [rbp-0x50]
    49f1:	f0 41 0f b1 36       	lock cmpxchg DWORD PTR [r14],esi
    49f6:	4c 89 75 b0          	mov    QWORD PTR [rbp-0x50],r14
    49fa:	75 90                	jne    0x498c
    49fc:	41 8b 75 0c          	mov    esi,DWORD PTR [r13+0xc]
    4a00:	45 31 d2             	xor    r10d,r10d
    4a03:	ba 01 00 00 00       	mov    edx,0x1
    4a08:	4c 8b 75 b0          	mov    r14,QWORD PTR [rbp-0x50]
    4a0c:	4c 89 f7             	mov    rdi,r14
    4a0f:	b8 ca 00 00 00       	mov    eax,0xca
    4a14:	49 be cd 42 e5 f7 ff 	movabs r14,0x7ffff7e542cd
    4a1b:	7f 00 00 
    4a1e:	e9 07 44 00 00       	jmp    0x8e2a
    4a23:	49 be cf 42 e5 f7 ff 	movabs r14,0x7ffff7e542cf
    4a2a:	7f 00 00 
    4a2d:	49 ff c3             	inc    r11
    4a30:	49 f7 c3 00 00 00 01 	test   r11,0x1000000
    4a37:	0f 85 08 44 00 00    	jne    0x8e45
    4a3d:	48 3d 00 f0 ff ff    	cmp    rax,0xfffffffffffff000
    4a43:	0f 87 5c 04 00 00    	ja     0x4ea5
    4a49:	4c 89 e7             	mov    rdi,r12
    4a4c:	49 be e3 42 e5 f7 ff 	movabs r14,0x7ffff7e542e3
    4a53:	7f 00 00 
    4a56:	4d 8d 6d f8          	lea    r13,[r13-0x8]
    4a5a:	4d 89 75 00          	mov    QWORD PTR [r13+0x0],r14
    4a5e:	e9 12 27 00 00       	jmp    0x7175
    4a63:	49 be e3 42 e5 f7 ff 	movabs r14,0x7ffff7e542e3
    4a6a:	7f 00 00 
    4a6d:	49 ff c3             	inc    r11
    4a70:	49 f7 c3 00 00 00 01 	test   r11,0x1000000
    4a77:	0f 85 c8 43 00 00    	jne    0x8e45
    4a7d:	e9 df fd ff ff       	jmp    0x4861
    4a82:	49 be f0 42 e5 f7 ff 	movabs r14,0x7ffff7e542f0
    4a89:	7f 00 00 
    4a8c:	49 ff c3             	inc    r11
    4a8f:	49 f7 c3 00 00 00 01 	test   r11,0x1000000
    4a96:	0f 85 a9 43 00 00    	jne    0x8e45
    4a9c:	49 8b 45 18          	mov    rax,QWORD PTR [r13+0x18]
    4aa0:	49 03 45 20          	add    rax,QWORD PTR [r13+0x20]
    4aa4:	49 89 45 30          	mov    QWORD PTR [r13+0x30],rax
    4aa8:	f0 83 00 02          	lock add DWORD PTR [rax],0x2
    4aac:	4c 8b 75 b0          	mov    r14,QWORD PTR [rbp-0x50]
    4ab0:	41 8b 06             	mov    eax,DWORD PTR [r14]
    4ab3:	a8 01                	test   al,0x1
    4ab5:	4c 89 75 b0          	mov    QWORD PTR [rbp-0x50],r14
    4ab9:	0f 85 e4 04 00 00    	jne    0x4fa3
    4abf:	49 be 0e 43 e5 f7 ff 	movabs r14,0x7ffff7e5430e
    4ac6:	7f 00 00 
    4ac9:	49 ff c3             	inc    r11
    4acc:	49 f7 c3 00 00 00 01 	test   r11,0x1000000
    4ad3:	0f 85 6c 43 00 00    	jne    0x8e45
    4ad9:	49 8b 44 24 08       	mov    rax,QWORD PTR [r12+0x8]
    4ade:	48 d1 e8             	shr    rax,1
    4ae1:	49 39 45 00          	cmp    QWORD PTR [r13+0x0],rax
    4ae5:	0f 82 b8 04 00 00    	jb     0x4fa3
    4aeb:	49 8b 45 28          	mov    rax,QWORD PTR [r13+0x28]
    4aef:	4c 8b 75 a0          	mov    r14,QWORD PTR [rbp-0x60]
    4af3:	66 49 0f 6e ce       	movq   xmm1,r14
    4af8:	66 49 0f 6e c4       	movq   xmm0,r12
    4afd:	4c 8b 7d a8          	mov    r15,QWORD PTR [rbp-0x58]
    4b01:	4d 8d 7d 40          	lea    r15,[r13+0x40]
    4b05:	66 0f 6c c1          	punpcklqdq xmm0,xmm1
    4b09:	49 8d 55 60          	lea    rdx,[r13+0x60]
    4b0d:	4c 89 ff             	mov    rdi,r15
    4b10:	41 89 5d 78          	mov    DWORD PTR [r13+0x78],ebx
    4b14:	4c 89 75 a0          	mov    QWORD PTR [rbp-0x60],r14
    4b18:	49 be 4a 43 e5 f7 ff 	movabs r14,0x7ffff7e5434a
    4b1f:	7f 00 00 
    4b22:	49 8d b6 06 fd ff ff 	lea    rsi,[r14-0x2fa]
    4b29:	49 89 45 60          	mov    QWORD PTR [r13+0x60],rax
    4b2d:	41 0f 11 45 68       	movups XMMWORD PTR [r13+0x68],xmm0
    4b32:	49 be 59 43 e5 f7 ff 	movabs r14,0x7ffff7e54359
    4b39:	7f 00 00 
    4b3c:	4d 8d 6d f8          	lea    r13,[r13-0x8]
    4b40:	4d 89 75 00          	mov    QWORD PTR [r13+0x0],r14
    4b44:	4c 89 7d a8          	mov    QWORD PTR [rbp-0x58],r15
    4b48:	e9 4d 42 00 00       	jmp    0x8d9a
    4b4d:	49 be 5e 43 e5 f7 ff 	movabs r14,0x7ffff7e5435e
    4b54:	7f 00 00 
    4b57:	4d 8d 6d f8          	lea    r13,[r13-0x8]
    4b5b:	4d 89 75 00          	mov    QWORD PTR [r13+0x0],r14
    4b5f:	e9 ce 41 00 00       	jmp    0x8d32
    4b64:	89 de                	mov    esi,ebx
    4b66:	45 31 d2             	xor    r10d,r10d
    4b69:	31 d2                	xor    edx,edx
    4b6b:	41 89 c0             	mov    r8d,eax
    4b6e:	40 80 f6 80          	xor    sil,0x80
    4b72:	4c 8b 75 b0          	mov    r14,QWORD PTR [rbp-0x50]
    4b76:	4c 89 f7             	mov    rdi,r14
    4b79:	b8 ca 00 00 00       	mov    eax,0xca
    4b7e:	49 be 74 43 e5 f7 ff 	movabs r14,0x7ffff7e54374
    4b85:	7f 00 00 
    4b88:	e9 9d 42 00 00       	jmp    0x8e2a
    4b8d:	49 be 76 43 e5 f7 ff 	movabs r14,0x7ffff7e54376
    4b94:	7f 00 00 
    4b97:	49 ff c3             	inc    r11
    4b9a:	49 f7 c3 00 00 00 01 	test   r11,0x1000000
    4ba1:	0f 85 9e 42 00 00    	jne    0x8e45
    4ba7:	48 3d 00 f0 ff ff    	cmp    rax,0xfffffffffffff000
    4bad:	0f 87 37 03 00 00    	ja     0x4eea
    4bb3:	44 89 c7             	mov    edi,r8d
    4bb6:	49 be 8a 43 e5 f7 ff 	movabs r14,0x7ffff7e5438a
    4bbd:	7f 00 00 
    4bc0:	4d 8d 6d f8          	lea    r13,[r13-0x8]
    4bc4:	4d 89 75 00          	mov    QWORD PTR [r13+0x0],r14
    4bc8:	e9 95 40 00 00       	jmp    0x8c62
    4bcd:	31 f6                	xor    esi,esi
    4bcf:	4c 8b 75 a8          	mov    r14,QWORD PTR [rbp-0x58]
    4bd3:	4c 89 f7             	mov    rdi,r14
    4bd6:	49 bf 94 43 e5 f7 ff 	movabs r15,0x7ffff7e54394
    4bdd:	7f 00 00 
    4be0:	4d 8d 6d f8          	lea    r13,[r13-0x8]
    4be4:	4d 89 7d 00          	mov    QWORD PTR [r13+0x0],r15
    4be8:	4c 89 75 a8          	mov    QWORD PTR [rbp-0x58],r14
    4bec:	e9 bb 3f 00 00       	jmp    0x8bac
    4bf1:	49 be 94 43 e5 f7 ff 	movabs r14,0x7ffff7e54394
    4bf8:	7f 00 00 
    4bfb:	49 ff c3             	inc    r11
    4bfe:	49 f7 c3 00 00 00 01 	test   r11,0x1000000
    4c05:	0f 85 3a 42 00 00    	jne    0x8e45
    4c0b:	49 8b 4d 30          	mov    rcx,QWORD PTR [r13+0x30]
    4c0f:	b8 fe ff ff ff       	mov    eax,0xfffffffe
    4c14:	f0 0f c1 01          	lock xadd DWORD PTR [rcx],eax
    4c18:	83 f8 03             	cmp    eax,0x3
    4c1b:	0f 84 ee 01 00 00    	je     0x4e0f
    4c21:	4c 8b 75 b0          	mov    r14,QWORD PTR [rbp-0x50]
    4c25:	41 8b 06             	mov    eax,DWORD PTR [r14]
    4c28:	4c 89 75 b0          	mov    QWORD PTR [rbp-0x50],r14
    4c2c:	49 be ae 43 e5 f7 ff 	movabs r14,0x7ffff7e543ae
    4c33:	7f 00 00 
    4c36:	49 ff c3             	inc    r11
    4c39:	49 f7 c3 00 00 00 01 	test   r11,0x1000000
    4c40:	0f 85 ff 41 00 00    	jne    0x8e45
    4c46:	a8 01                	test   al,0x1
    4c48:	0f 84 8d fb ff ff    	je     0x47db
    4c4e:	49 be b6 43 e5 f7 ff 	movabs r14,0x7ffff7e543b6
    4c55:	7f 00 00 
    4c58:	49 ff c3             	inc    r11
    4c5b:	49 f7 c3 00 00 00 01 	test   r11,0x1000000
    4c62:	0f 85 dd 41 00 00    	jne    0x8e45
    4c68:	e9 f4 fb ff ff       	jmp    0x4861
    4c6d:	41 8b 75 0c          	mov    esi,DWORD PTR [r13+0xc]
    4c71:	45 31 d2             	xor    r10d,r10d
    4c74:	ba ff ff ff 7f       	mov    edx,0x7fffffff
    4c79:	4c 8b 75 98          	mov    r14,QWORD PTR [rbp-0x68]
    4c7d:	4c 89 f7             	mov    rdi,r14
    4c80:	b8 ca 00 00 00       	mov    eax,0xca
    4c85:	49 be d4 43 e5 f7 ff 	movabs r14,0x7ffff7e543d4
    4c8c:	7f 00 00 
    4c8f:	e9 96 41 00 00       	jmp    0x8e2a
    4c94:	49 be d6 43 e5 f7 ff 	movabs r14,0x7ffff7e543d6
    4c9b:	7f 00 00 
    4c9e:	49 ff c3             	inc    r11
    4ca1:	49 f7 c3 00 00 00 01 	test   r11,0x1000000
    4ca8:	0f 85 97 41 00 00    	jne    0x8e45
    4cae:	48 3d 00 f0 ff ff    	cmp    rax,0xfffffffffffff000
    4cb4:	0f 86 df fb ff ff    	jbe    0x4899
    4cba:	49 be e2 43 e5 f7 ff 	movabs r14,0x7ffff7e543e2
    4cc1:	7f 00 00 
    4cc4:	49 ff c3             	inc    r11
    4cc7:	49 f7 c3 00 00 00 01 	test   r11,0x1000000
    4cce:	0f 85 71 41 00 00    	jne    0x8e45
    4cd4:	83 c0 16             	add    eax,0x16
    4cd7:	83 e0 f7             	and    eax,0xfffffff7
    4cda:	0f 84 b9 fb ff ff    	je     0x4899
    4ce0:	49 be f5 43 e5 f7 ff 	movabs r14,0x7ffff7e543f5
    4ce7:	7f 00 00 
    4cea:	49 8d be 0b 7c 00 00 	lea    rdi,[r14+0x7c0b]
    4cf1:	49 be fa 43 e5 f7 ff 	movabs r14,0x7ffff7e543fa
    4cf8:	7f 00 00 
    4cfb:	4d 8d 6d f8          	lea    r13,[r13-0x8]
    4cff:	4d 89 75 00          	mov    QWORD PTR [r13+0x0],r14
    4d03:	e9 74 3f 00 00       	jmp    0x8c7c
    4d08:	90                   	nop
    4d09:	49 8b 75 00          	mov    rsi,QWORD PTR [r13+0x0]
    4d0d:	4c 8b 75 a8          	mov    r14,QWORD PTR [rbp-0x58]
    4d11:	44 89 f1             	mov    ecx,r14d
    4d14:	4c 8b 7d b0          	mov    r15,QWORD PTR [rbp-0x50]
    4d18:	44 89 fa             	mov    edx,r15d
    4d1b:	4c 89 e7             	mov    rdi,r12
    4d1e:	41 89 45 10          	mov    DWORD PTR [r13+0x10],eax
    4d22:	4c 89 75 a8          	mov    QWORD PTR [rbp-0x58],r14
    4d26:	49 be 16 44 e5 f7 ff 	movabs r14,0x7ffff7e54416
    4d2d:	7f 00 00 
    4d30:	4d 8d 6d f8          	lea    r13,[r13-0x8]
    4d34:	4d 89 75 00          	mov    QWORD PTR [r13+0x0],r14
    4d38:	4c 89 7d b0          	mov    QWORD PTR [rbp-0x50],r15
    4d3c:	e9 8d 40 00 00       	jmp    0x8dce
    4d41:	49 be 16 44 e5 f7 ff 	movabs r14,0x7ffff7e54416
    4d48:	7f 00 00 
    4d4b:	49 ff c3             	inc    r11
    4d4e:	49 f7 c3 00 00 00 01 	test   r11,0x1000000
    4d55:	0f 85 ea 40 00 00    	jne    0x8e45
    4d5b:	b8 f8 ff ff ff       	mov    eax,0xfffffff8
    4d60:	4c 8b 75 98          	mov    r14,QWORD PTR [rbp-0x68]
    4d64:	f0 41 0f c1 06       	lock xadd DWORD PTR [r14],eax
    4d69:	45 8b 45 10          	mov    r8d,DWORD PTR [r13+0x10]
    4d6d:	c1 e8 02             	shr    eax,0x2
    4d70:	83 f8 03             	cmp    eax,0x3
    4d73:	4c 89 75 98          	mov    QWORD PTR [rbp-0x68],r14
    4d77:	0f 85 41 fb ff ff    	jne    0x48be
    4d7d:	41 8b 75 0c          	mov    esi,DWORD PTR [r13+0xc]
    4d81:	45 31 d2             	xor    r10d,r10d
    4d84:	ba ff ff ff 7f       	mov    edx,0x7fffffff
    4d89:	4c 8b 75 98          	mov    r14,QWORD PTR [rbp-0x68]
    4d8d:	4c 89 f7             	mov    rdi,r14
    4d90:	b8 ca 00 00 00       	mov    eax,0xca
    4d95:	49 be 46 44 e5 f7 ff 	movabs r14,0x7ffff7e54446
    4d9c:	7f 00 00 
    4d9f:	e9 86 40 00 00       	jmp    0x8e2a
    4da4:	49 be 48 44 e5 f7 ff 	movabs r14,0x7ffff7e54448
    4dab:	7f 00 00 
    4dae:	49 ff c3             	inc    r11
    4db1:	49 f7 c3 00 00 00 01 	test   r11,0x1000000
    4db8:	0f 85 87 40 00 00    	jne    0x8e45
    4dbe:	48 3d 00 f0 ff ff    	cmp    rax,0xfffffffffffff000
    4dc4:	0f 86 f4 fa ff ff    	jbe    0x48be
    4dca:	49 be 54 44 e5 f7 ff 	movabs r14,0x7ffff7e54454
    4dd1:	7f 00 00 
    4dd4:	49 ff c3             	inc    r11
    4dd7:	49 f7 c3 00 00 00 01 	test   r11,0x1000000
    4dde:	0f 85 61 40 00 00    	jne    0x8e45
    4de4:	83 c0 16             	add    eax,0x16
    4de7:	83 e0 f7             	and    eax,0xfffffff7
    4dea:	0f 85 f0 fe ff ff    	jne    0x4ce0
    4df0:	49 be 5c 44 e5 f7 ff 	movabs r14,0x7ffff7e5445c
    4df7:	7f 00 00 
    4dfa:	49 ff c3             	inc    r11
    4dfd:	49 f7 c3 00 00 00 01 	test   r11,0x1000000
    4e04:	0f 85 3b 40 00 00    	jne    0x8e45
    4e0a:	e9 af fa ff ff       	jmp    0x48be
    4e0f:	49 8b 45 30          	mov    rax,QWORD PTR [r13+0x30]
    4e13:	f0 83 20 fe          	lock and DWORD PTR [rax],0xfffffffe
    4e17:	45 31 d2             	xor    r10d,r10d
    4e1a:	ba ff ff ff 7f       	mov    edx,0x7fffffff
    4e1f:	41 8b 75 0c          	mov    esi,DWORD PTR [r13+0xc]
    4e23:	48 89 c7             	mov    rdi,rax
    4e26:	b8 ca 00 00 00       	mov    eax,0xca
    4e2b:	49 be 85 44 e5 f7 ff 	movabs r14,0x7ffff7e54485
    4e32:	7f 00 00 
    4e35:	e9 f0 3f 00 00       	jmp    0x8e2a
    4e3a:	49 be 87 44 e5 f7 ff 	movabs r14,0x7ffff7e54487
    4e41:	7f 00 00 
    4e44:	49 ff c3             	inc    r11
    4e47:	49 f7 c3 00 00 00 01 	test   r11,0x1000000
    4e4e:	0f 85 f1 3f 00 00    	jne    0x8e45
    4e54:	48 3d 00 f0 ff ff    	cmp    rax,0xfffffffffffff000
    4e5a:	0f 86 c1 fd ff ff    	jbe    0x4c21
    4e60:	49 be 93 44 e5 f7 ff 	movabs r14,0x7ffff7e54493
    4e67:	7f 00 00 
    4e6a:	49 ff c3             	inc    r11
    4e6d:	49 f7 c3 00 00 00 01 	test   r11,0x1000000
    4e74:	0f 85 cb 3f 00 00    	jne    0x8e45
    4e7a:	83 c0 16             	add    eax,0x16
    4e7d:	83 e0 f7             	and    eax,0xfffffff7
    4e80:	0f 85 5a fe ff ff    	jne    0x4ce0
    4e86:	49 be 9f 44 e5 f7 ff 	movabs r14,0x7ffff7e5449f
    4e8d:	7f 00 00 
    4e90:	49 ff c3             	inc    r11
    4e93:	49 f7 c3 00 00 00 01 	test   r11,0x1000000
    4e9a:	0f 85 a5 3f 00 00    	jne    0x8e45
    4ea0:	e9 7c fd ff ff       	jmp    0x4c21
    4ea5:	49 be a4 44 e5 f7 ff 	movabs r14,0x7ffff7e544a4
    4eac:	7f 00 00 
    4eaf:	49 ff c3             	inc    r11
    4eb2:	49 f7 c3 00 00 00 01 	test   r11,0x1000000
    4eb9:	0f 85 86 3f 00 00    	jne    0x8e45
    4ebf:	83 c0 16             	add    eax,0x16
    4ec2:	83 e0 f7             	and    eax,0xfffffff7
    4ec5:	0f 85 15 fe ff ff    	jne    0x4ce0
    4ecb:	49 be b0 44 e5 f7 ff 	movabs r14,0x7ffff7e544b0
    4ed2:	7f 00 00 
    4ed5:	49 ff c3             	inc    r11
    4ed8:	49 f7 c3 00 00 00 01 	test   r11,0x1000000
    4edf:	0f 85 60 3f 00 00    	jne    0x8e45
    4ee5:	e9 5f fb ff ff       	jmp    0x4a49
    4eea:	44 89 c7             	mov    edi,r8d
    4eed:	49 89 45 38          	mov    QWORD PTR [r13+0x38],rax
    4ef1:	49 be c5 44 e5 f7 ff 	movabs r14,0x7ffff7e544c5
    4ef8:	7f 00 00 
    4efb:	4d 8d 6d f8          	lea    r13,[r13-0x8]
    4eff:	4d 89 75 00          	mov    QWORD PTR [r13+0x0],r14
    4f03:	e9 5a 3d 00 00       	jmp    0x8c62
    4f08:	49 be c5 44 e5 f7 ff 	movabs r14,0x7ffff7e544c5
    4f0f:	7f 00 00 
    4f12:	49 ff c3             	inc    r11
    4f15:	49 f7 c3 00 00 00 01 	test   r11,0x1000000
    4f1c:	0f 85 23 3f 00 00    	jne    0x8e45
    4f22:	49 8b 45 38          	mov    rax,QWORD PTR [r13+0x38]
    4f26:	8d 48 0b             	lea    ecx,[rax+0xb]
    4f29:	83 f9 0b             	cmp    ecx,0xb
    4f2c:	0f 87 ae fd ff ff    	ja     0x4ce0
    4f32:	49 be d6 44 e5 f7 ff 	movabs r14,0x7ffff7e544d6
    4f39:	7f 00 00 
    4f3c:	49 ff c3             	inc    r11
    4f3f:	49 f7 c3 00 00 00 01 	test   r11,0x1000000
    4f46:	0f 85 f9 3e 00 00    	jne    0x8e45
    4f4c:	ba 01 00 00 00       	mov    edx,0x1
    4f51:	48 d3 e2             	shl    rdx,cl
    4f54:	f7 c2 81 08 00 00    	test   edx,0x881
    4f5a:	0f 84 80 fd ff ff    	je     0x4ce0
    4f60:	31 f6                	xor    esi,esi
    4f62:	4c 8b 75 a8          	mov    r14,QWORD PTR [rbp-0x58]
    4f66:	4c 89 f7             	mov    rdi,r14
    4f69:	49 bf f4 44 e5 f7 ff 	movabs r15,0x7ffff7e544f4
    4f70:	7f 00 00 
    4f73:	4d 8d 6d f8          	lea    r13,[r13-0x8]
    4f77:	4d 89 7d 00          	mov    QWORD PTR [r13+0x0],r15
    4f7b:	4c 89 75 a8          	mov    QWORD PTR [rbp-0x58],r14
    4f7f:	e9 28 3c 00 00       	jmp    0x8bac
    4f84:	49 be f4 44 e5 f7 ff 	movabs r14,0x7ffff7e544f4
    4f8b:	7f 00 00 
    4f8e:	49 ff c3             	inc    r11
    4f91:	49 f7 c3 00 00 00 01 	test   r11,0x1000000
    4f98:	0f 85 a7 3e 00 00    	jne    0x8e45
    4f9e:	e9 4e fc ff ff       	jmp    0x4bf1
    4fa3:	49 be 00 45 e5 f7 ff 	movabs r14,0x7ffff7e54500
    4faa:	7f 00 00 
    4fad:	49 ff c3             	inc    r11
    4fb0:	49 f7 c3 00 00 00 01 	test   r11,0x1000000
    4fb7:	0f 85 88 3e 00 00    	jne    0x8e45
    4fbd:	49 8b 4d 30          	mov    rcx,QWORD PTR [r13+0x30]
    4fc1:	b8 fe ff ff ff       	mov    eax,0xfffffffe
    4fc6:	f0 0f c1 01          	lock xadd DWORD PTR [rcx],eax
    4fca:	83 f8 03             	cmp    eax,0x3
    4fcd:	0f 85 8e f8 ff ff    	jne    0x4861
    4fd3:	49 8b 45 30          	mov    rax,QWORD PTR [r13+0x30]
    4fd7:	f0 83 20 fe          	lock and DWORD PTR [rax],0xfffffffe
    4fdb:	45 31 d2             	xor    r10d,r10d
    4fde:	ba ff ff ff 7f       	mov    edx,0x7fffffff
    4fe3:	41 8b 75 0c          	mov    esi,DWORD PTR [r13+0xc]
    4fe7:	48 89 c7             	mov    rdi,rax
    4fea:	b8 ca 00 00 00       	mov    eax,0xca
    4fef:	49 be 34 45 e5 f7 ff 	movabs r14,0x7ffff7e54534
    4ff6:	7f 00 00 
    4ff9:	e9 2c 3e 00 00       	jmp    0x8e2a
    4ffe:	49 be 36 45 e5 f7 ff 	movabs r14,0x7ffff7e54536
    5005:	7f 00 00 
    5008:	49 ff c3             	inc    r11
    500b:	49 f7 c3 00 00 00 01 	test   r11,0x1000000
    5012:	0f 85 2d 3e 00 00    	jne    0x8e45
    5018:	48 3d 00 f0 ff ff    	cmp    rax,0xfffffffffffff000
    501e:	0f 86 3d f8 ff ff    	jbe    0x4861
    5024:	49 be 42 45 e5 f7 ff 	movabs r14,0x7ffff7e54542
    502b:	7f 00 00 
    502e:	49 ff c3             	inc    r11
    5031:	49 f7 c3 00 00 00 01 	test   r11,0x1000000
    5038:	0f 85 07 3e 00 00    	jne    0x8e45
    503e:	83 c0 16             	add    eax,0x16
    5041:	83 e0 f7             	and    eax,0xfffffff7
    5044:	0f 85 96 fc ff ff    	jne    0x4ce0
    504a:	49 be 4e 45 e5 f7 ff 	movabs r14,0x7ffff7e5454e
    5051:	7f 00 00 
    5054:	49 ff c3             	inc    r11
    5057:	49 f7 c3 00 00 00 01 	test   r11,0x1000000
    505e:	0f 85 e1 3d 00 00    	jne    0x8e45
    5064:	e9 f8 f7 ff ff       	jmp    0x4861
    5069:	49 be 58 45 e5 f7 ff 	movabs r14,0x7ffff7e54558
    5070:	7f 00 00 
    5073:	4d 8d 6d f8          	lea    r13,[r13-0x8]
    5077:	4d 89 75 00          	mov    QWORD PTR [r13+0x0],r14
    507b:	e9 cc 3c 00 00       	jmp    0x8d4c
    5080:	49 be 58 45 e5 f7 ff 	movabs r14,0x7ffff7e54558
    5087:	7f 00 00 
    508a:	49 ff c3             	inc    r11
    508d:	49 f7 c3 00 00 00 01 	test   r11,0x1000000
    5094:	0f 85 ab 3d 00 00    	jne    0x8e45
    509a:	90                   	nop
    509b:	90                   	nop
    509c:	4d 8d 6d f8          	lea    r13,[r13-0x8]
    50a0:	4c 8b 75 b0          	mov    r14,QWORD PTR [rbp-0x50]
    50a4:	4d 89 75 00          	mov    QWORD PTR [r13+0x0],r14
    50a8:	4d 8d 6d f8          	lea    r13,[r13-0x8]
    50ac:	4c 8b 7d a8          	mov    r15,QWORD PTR [rbp-0x58]
    50b0:	4d 89 7d 00          	mov    QWORD PTR [r13+0x0],r15
    50b4:	4d 8d 6d f8          	lea    r13,[r13-0x8]
    50b8:	4c 89 75 b0          	mov    QWORD PTR [rbp-0x50],r14
    50bc:	4c 8b 75 a0          	mov    r14,QWORD PTR [rbp-0x60]
    50c0:	4d 89 75 00          	mov    QWORD PTR [r13+0x0],r14
    50c4:	4d 8d 6d f8          	lea    r13,[r13-0x8]
    50c8:	4c 89 75 a0          	mov    QWORD PTR [rbp-0x60],r14
    50cc:	4c 8b 75 98          	mov    r14,QWORD PTR [rbp-0x68]
    50d0:	4d 89 75 00          	mov    QWORD PTR [r13+0x0],r14
    50d4:	4d 8d 6d f8          	lea    r13,[r13-0x8]
    50d8:	4d 89 65 00          	mov    QWORD PTR [r13+0x0],r12
    50dc:	4d 8d 6d f8          	lea    r13,[r13-0x8]
    50e0:	49 89 5d 00          	mov    QWORD PTR [r13+0x0],rbx
    50e4:	49 81 ed a8 00 00 00 	sub    r13,0xa8
    50eb:	49 89 55 18          	mov    QWORD PTR [r13+0x18],rdx
    50ef:	4c 89 75 98          	mov    QWORD PTR [rbp-0x68],r14
    50f3:	4c 8b 75 80          	mov    r14,QWORD PTR [rbp-0x80]
    50f7:	49 8b 4e 28          	mov    rcx,QWORD PTR [r14+0x28]
    50fb:	49 89 8d 98 00 00 00 	mov    QWORD PTR [r13+0x98],rcx
    5102:	31 c9                	xor    ecx,ecx
    5104:	48 81 7a 08 ff c9 9a 	cmp    QWORD PTR [rdx+0x8],0x3b9ac9ff
    510b:	3b 
    510c:	4c 89 7d a8          	mov    QWORD PTR [rbp-0x58],r15
    5110:	0f 87 b3 06 00 00    	ja     0x57c9
    5116:	49 be 9b 45 e5 f7 ff 	movabs r14,0x7ffff7e5459b
    511d:	7f 00 00 
    5120:	49 ff c3             	inc    r11
    5123:	49 f7 c3 00 00 00 01 	test   r11,0x1000000
    512a:	0f 85 15 3d 00 00    	jne    0x8e45
    5130:	8b 5f 24             	mov    ebx,DWORD PTR [rdi+0x24]
    5133:	49 89 fc             	mov    r12,rdi
    5136:	4c 8b 75 a0          	mov    r14,QWORD PTR [rbp-0x60]
    513a:	49 89 f6             	mov    r14,rsi
    513d:	4c 8b 7d 98          	mov    r15,QWORD PTR [rbp-0x68]
    5141:	4c 8d 7f 24          	lea    r15,[rdi+0x24]
    5145:	d1 eb                	shr    ebx,1
    5147:	83 e3 01             	and    ebx,0x1
    514a:	90                   	nop
    514b:	b8 02 00 00 00       	mov    eax,0x2
    5150:	f0 48 0f c1 07       	lock xadd QWORD PTR [rdi],rax
    5155:	89 c1                	mov    ecx,eax
    5157:	49 89 45 20          	mov    QWORD PTR [r13+0x20],rax
    515b:	48 d1 e8             	shr    rax,1
    515e:	83 e1 01             	and    ecx,0x1
    5161:	49 89 45 00          	mov    QWORD PTR [r13+0x0],rax
    5165:	b8 08 00 00 00       	mov    eax,0x8
    516a:	41 89 4d 0c          	mov    DWORD PTR [r13+0xc],ecx
    516e:	f0 41 0f c1 07       	lock xadd DWORD PTR [r15],eax
    5173:	4c 89 75 a0          	mov    QWORD PTR [rbp-0x60],r14
    5177:	4c 8b 75 b0          	mov    r14,QWORD PTR [rbp-0x50]
    517b:	45 31 f6             	xor    r14d,r14d
    517e:	83 e0 01             	and    eax,0x1
    5181:	41 c7 45 14 81 00 00 	mov    DWORD PTR [r13+0x14],0x81
    5188:	00 
    5189:	41 89 45 08          	mov    DWORD PTR [r13+0x8],eax
    518d:	4c 89 7d 98          	mov    QWORD PTR [rbp-0x68],r15
    5191:	4c 89 75 b0          	mov    QWORD PTR [rbp-0x50],r14
    5195:	74 1a                	je     0x51b1
    5197:	41 89 45 14          	mov    DWORD PTR [r13+0x14],eax
    519b:	4c 8b 75 b0          	mov    r14,QWORD PTR [rbp-0x50]
    519f:	41 be 80 00 00 00    	mov    r14d,0x80
    51a5:	41 c7 45 08 80 00 00 	mov    DWORD PTR [r13+0x8],0x80
    51ac:	00 
    51ad:	4c 89 75 b0          	mov    QWORD PTR [rbp-0x50],r14
    51b1:	31 f6                	xor    esi,esi
    51b3:	4c 8b 75 a0          	mov    r14,QWORD PTR [rbp-0x60]
    51b7:	4c 89 f7             	mov    rdi,r14
    51ba:	49 bf 08 46 e5 f7 ff 	movabs r15,0x7ffff7e54608
    51c1:	7f 00 00 
    51c4:	4d 8d 6d f8          	lea    r13,[r13-0x8]
    51c8:	4d 89 7d 00          	mov    QWORD PTR [r13+0x0],r15
    51cc:	4c 89 75 a0          	mov    QWORD PTR [rbp-0x60],r14
    51d0:	e9 62 d5 ff ff       	jmp    0x2737
    51d5:	49 be 08 46 e5 f7 ff 	movabs r14,0x7ffff7e54608
    51dc:	7f 00 00 
    51df:	49 ff c3             	inc    r11
    51e2:	49 f7 c3 00 00 00 01 	test   r11,0x1000000
    51e9:	0f 85 56 3c 00 00    	jne    0x8e45
    51ef:	41 89 45 10          	mov    DWORD PTR [r13+0x10],eax
    51f3:	85 c0                	test   eax,eax
    51f5:	0f 85 f3 05 00 00    	jne    0x57ee
    51fb:	49 be 14 46 e5 f7 ff 	movabs r14,0x7ffff7e54614
    5202:	7f 00 00 
    5205:	49 ff c3             	inc    r11
    5208:	49 f7 c3 00 00 00 01 	test   r11,0x1000000
    520f:	0f 85 30 3c 00 00    	jne    0x8e45
    5215:	41 8b 45 0c          	mov    eax,DWORD PTR [r13+0xc]
    5219:	49 89 45 28          	mov    QWORD PTR [r13+0x28],rax
    521d:	48 c1 e0 02          	shl    rax,0x2
    5221:	49 89 45 30          	mov    QWORD PTR [r13+0x30],rax
    5225:	4c 8b 75 a8          	mov    r14,QWORD PTR [rbp-0x58]
    5229:	4e 8d 74 20 28       	lea    r14,[rax+r12*1+0x28]
    522e:	41 8b 06             	mov    eax,DWORD PTR [r14]
    5231:	a8 01                	test   al,0x1
    5233:	4c 89 75 a8          	mov    QWORD PTR [rbp-0x58],r14
    5237:	0f 85 ac 00 00 00    	jne    0x52e9
    523d:	83 fb 01             	cmp    ebx,0x1
    5240:	49 8d 4c 24 10       	lea    rcx,[r12+0x10]
    5245:	19 d2                	sbb    edx,edx
    5247:	49 89 4d 38          	mov    QWORD PTR [r13+0x38],rcx
    524b:	81 e2 00 01 00 00    	and    edx,0x100
    5251:	80 ca 89             	or     dl,0x89
    5254:	4c 8b 75 b0          	mov    r14,QWORD PTR [rbp-0x50]
    5258:	44 31 f2             	xor    edx,r14d
    525b:	41 89 55 40          	mov    DWORD PTR [r13+0x40],edx
    525f:	4c 89 75 b0          	mov    QWORD PTR [rbp-0x50],r14
    5263:	49 be 50 46 e5 f7 ff 	movabs r14,0x7ffff7e54650
    526a:	7f 00 00 
    526d:	49 ff c3             	inc    r11
    5270:	49 f7 c3 00 00 00 01 	test   r11,0x1000000
    5277:	0f 85 c8 3b 00 00    	jne    0x8e45
    527d:	85 c0                	test   eax,eax
    527f:	0f 84 8c 02 00 00    	je     0x5511
    5285:	49 be 58 46 e5 f7 ff 	movabs r14,0x7ffff7e54658
    528c:	7f 00 00 
    528f:	49 ff c3             	inc    r11
    5292:	49 f7 c3 00 00 00 01 	test   r11,0x1000000
    5299:	0f 85 a6 3b 00 00    	jne    0x8e45
    529f:	8d 50 fe             	lea    edx,[rax-0x2]
    52a2:	4c 8b 75 a8          	mov    r14,QWORD PTR [rbp-0x58]
    52a6:	f0 41 0f b1 16       	lock cmpxchg DWORD PTR [r14],edx
    52ab:	4c 89 75 a8          	mov    QWORD PTR [rbp-0x58],r14
    52af:	0f 85 37 04 00 00    	jne    0x56ec
    52b5:	49 be 66 46 e5 f7 ff 	movabs r14,0x7ffff7e54666
    52bc:	7f 00 00 
    52bf:	49 ff c3             	inc    r11
    52c2:	49 f7 c3 00 00 00 01 	test   r11,0x1000000
    52c9:	0f 85 76 3b 00 00    	jne    0x8e45
    52cf:	49 8b 54 24 08       	mov    rdx,QWORD PTR [r12+0x8]
    52d4:	49 8d 4c 24 08       	lea    rcx,[r12+0x8]
    52d9:	48 89 d0             	mov    rax,rdx
    52dc:	48 d1 e8             	shr    rax,1
    52df:	49 39 45 00          	cmp    QWORD PTR [r13+0x0],rax
    52e3:	0f 82 fa 00 00 00    	jb     0x53e3
    52e9:	49 be 7a 46 e5 f7 ff 	movabs r14,0x7ffff7e5467a
    52f0:	7f 00 00 
    52f3:	49 ff c3             	inc    r11
    52f6:	49 f7 c3 00 00 00 01 	test   r11,0x1000000
    52fd:	0f 85 42 3b 00 00    	jne    0x8e45
    5303:	b8 f8 ff ff ff       	mov    eax,0xfffffff8
    5308:	4c 8b 75 98          	mov    r14,QWORD PTR [rbp-0x68]
    530c:	f0 41 0f c1 06       	lock xadd DWORD PTR [r14],eax
    5311:	c1 e8 02             	shr    eax,0x2
    5314:	83 f8 03             	cmp    eax,0x3
    5317:	4c 89 75 98          	mov    QWORD PTR [rbp-0x68],r14
    531b:	0f 84 0c 04 00 00    	je     0x572d
    5321:	4c 8b 75 a0          	mov    r14,QWORD PTR [rbp-0x60]
    5325:	4c 89 f7             	mov    rdi,r14
    5328:	49 bf 99 46 e5 f7 ff 	movabs r15,0x7ffff7e54699
    532f:	7f 00 00 
    5332:	4d 8d 6d f8          	lea    r13,[r13-0x8]
    5336:	4d 89 7d 00          	mov    QWORD PTR [r13+0x0],r15
    533a:	4c 89 75 a0          	mov    QWORD PTR [rbp-0x60],r14
    533e:	e9 a2 3a 00 00       	jmp    0x8de5
    5343:	41 89 c0             	mov    r8d,eax
    5346:	85 c0                	test   eax,eax
    5348:	45 0f 44 45 10       	cmove  r8d,DWORD PTR [r13+0x10]
    534d:	49 be a4 46 e5 f7 ff 	movabs r14,0x7ffff7e546a4
    5354:	7f 00 00 
    5357:	49 ff c3             	inc    r11
    535a:	49 f7 c3 00 00 00 01 	test   r11,0x1000000
    5361:	0f 85 de 3a 00 00    	jne    0x8e45
    5367:	49 8b 85 98 00 00 00 	mov    rax,QWORD PTR [r13+0x98]
    536e:	4c 8b 75 80          	mov    r14,QWORD PTR [rbp-0x80]
    5372:	49 33 46 28          	xor    rax,QWORD PTR [r14+0x28]
    5376:	0f 85 06 09 00 00    	jne    0x5c82
    537c:	49 81 c5 a8 00 00 00 	add    r13,0xa8
    5383:	44 89 c0             	mov    eax,r8d
    5386:	49 8b 5d 00          	mov    rbx,QWORD PTR [r13+0x0]
    538a:	4d 8d 6d 08          	lea    r13,[r13+0x8]
    538e:	4d 8b 65 00          	mov    r12,QWORD PTR [r13+0x0]
    5392:	4d 8d 6d 08          	lea    r13,[r13+0x8]
    5396:	4c 8b 75 98          	mov    r14,QWORD PTR [rbp-0x68]
    539a:	4d 8b 75 00          	mov    r14,QWORD PTR [r13+0x0]
    539e:	4d 8d 6d 08          	lea    r13,[r13+0x8]
    53a2:	4c 8b 7d a0          	mov    r15,QWORD PTR [rbp-0x60]
    53a6:	4d 8b 7d 00          	mov    r15,QWORD PTR [r13+0x0]
    53aa:	4d 8d 6d 08          	lea    r13,[r13+0x8]
    53ae:	4c 89 75 98          	mov    QWORD PTR [rbp-0x68],r14
    53b2:	4c 8b 75 a8          	mov    r14,QWORD PTR [rbp-0x58]
    53b6:	4d 8b 75 00          	mov    r14,QWORD PTR [r13+0x0]
    53ba:	4d 8d 6d 08          	lea    r13,[r13+0x8]
    53be:	4c 89 75 a8          	mov    QWORD PTR [rbp-0x58],r14
    53c2:	4c 8b 75 b0          	mov    r14,QWORD PTR [rbp-0x50]
    53c6:	4d 8b 75 00          	mov    r14,QWORD PTR [r13+0x0]
    53ca:	4d 8d 6d 08          	lea    r13,[r13+0x8]
    53ce:	4c 89 75 b0          	mov    QWORD PTR [rbp-0x50],r14
    53d2:	4d 8b 75 00          	mov    r14,QWORD PTR [r13+0x0]
    53d6:	4d 8d 6d 08          	lea    r13,[r13+0x8]
    53da:	4c 89 7d a0          	mov    QWORD PTR [rbp-0x60],r15
    53de:	e9 68 37 00 00       	jmp    0x8b4b
    53e3:	49 be d0 46 e5 f7 ff 	movabs r14,0x7ffff7e546d0
    53ea:	7f 00 00 
    53ed:	49 ff c3             	inc    r11
    53f0:	49 f7 c3 00 00 00 01 	test   r11,0x1000000
    53f7:	0f 85 48 3a 00 00    	jne    0x8e45
    53fd:	48 89 d0             	mov    rax,rdx
    5400:	48 f7 d0             	not    rax
    5403:	83 e0 01             	and    eax,0x1
    5406:	49 39 45 28          	cmp    QWORD PTR [r13+0x28],rax
    540a:	0f 85 d9 fe ff ff    	jne    0x52e9
    5410:	4c 8b 75 a8          	mov    r14,QWORD PTR [rbp-0x58]
    5414:	41 8b 06             	mov    eax,DWORD PTR [r14]
    5417:	4c 89 75 a8          	mov    QWORD PTR [rbp-0x58],r14
    541b:	49 be e3 46 e5 f7 ff 	movabs r14,0x7ffff7e546e3
    5422:	7f 00 00 
    5425:	49 ff c3             	inc    r11
    5428:	49 f7 c3 00 00 00 01 	test   r11,0x1000000
    542f:	0f 85 10 3a 00 00    	jne    0x8e45
    5435:	48 8b 31             	mov    rsi,QWORD PTR [rcx]
    5438:	48 39 f2             	cmp    rdx,rsi
    543b:	0f 85 a8 fe ff ff    	jne    0x52e9
    5441:	49 be eb 46 e5 f7 ff 	movabs r14,0x7ffff7e546eb
    5448:	7f 00 00 
    544b:	49 ff c3             	inc    r11
    544e:	49 f7 c3 00 00 00 01 	test   r11,0x1000000
    5455:	0f 85 ea 39 00 00    	jne    0x8e45
    545b:	a8 01                	test   al,0x1
    545d:	75 2c                	jne    0x548b
    545f:	49 be ef 46 e5 f7 ff 	movabs r14,0x7ffff7e546ef
    5466:	7f 00 00 
    5469:	49 ff c3             	inc    r11
    546c:	49 f7 c3 00 00 00 01 	test   r11,0x1000000
    5473:	0f 85 cc 39 00 00    	jne    0x8e45
    5479:	8d 70 02             	lea    esi,[rax+0x2]
    547c:	4c 8b 75 a8          	mov    r14,QWORD PTR [rbp-0x58]
    5480:	f0 41 0f b1 36       	lock cmpxchg DWORD PTR [r14],esi
    5485:	4c 89 75 a8          	mov    QWORD PTR [rbp-0x58],r14
    5489:	75 90                	jne    0x541b
    548b:	41 8b 75 14          	mov    esi,DWORD PTR [r13+0x14]
    548f:	45 31 d2             	xor    r10d,r10d
    5492:	ba 01 00 00 00       	mov    edx,0x1
    5497:	4c 8b 75 a8          	mov    r14,QWORD PTR [rbp-0x58]
    549b:	4c 89 f7             	mov    rdi,r14
    549e:	b8 ca 00 00 00       	mov    eax,0xca
    54a3:	49 be 0d 47 e5 f7 ff 	movabs r14,0x7ffff7e5470d
    54aa:	7f 00 00 
    54ad:	e9 78 39 00 00       	jmp    0x8e2a
    54b2:	49 be 0f 47 e5 f7 ff 	movabs r14,0x7ffff7e5470f
    54b9:	7f 00 00 
    54bc:	49 ff c3             	inc    r11
    54bf:	49 f7 c3 00 00 00 01 	test   r11,0x1000000
    54c6:	0f 85 79 39 00 00    	jne    0x8e45
    54cc:	48 3d 00 f0 ff ff    	cmp    rax,0xfffffffffffff000
    54d2:	0f 87 39 05 00 00    	ja     0x5a11
    54d8:	4c 89 e7             	mov    rdi,r12
    54db:	49 be 23 47 e5 f7 ff 	movabs r14,0x7ffff7e54723
    54e2:	7f 00 00 
    54e5:	4d 8d 6d f8          	lea    r13,[r13-0x8]
    54e9:	4d 89 75 00          	mov    QWORD PTR [r13+0x0],r14
    54ed:	e9 83 1c 00 00       	jmp    0x7175
    54f2:	49 be 23 47 e5 f7 ff 	movabs r14,0x7ffff7e54723
    54f9:	7f 00 00 
    54fc:	49 ff c3             	inc    r11
    54ff:	49 f7 c3 00 00 00 01 	test   r11,0x1000000
    5506:	0f 85 39 39 00 00    	jne    0x8e45
    550c:	e9 d8 fd ff ff       	jmp    0x52e9
    5511:	49 be 30 47 e5 f7 ff 	movabs r14,0x7ffff7e54730
    5518:	7f 00 00 
    551b:	49 ff c3             	inc    r11
    551e:	49 f7 c3 00 00 00 01 	test   r11,0x1000000
    5525:	0f 85 1a 39 00 00    	jne    0x8e45
    552b:	49 8b 5d 38          	mov    rbx,QWORD PTR [r13+0x38]
    552f:	49 03 5d 30          	add    rbx,QWORD PTR [r13+0x30]
    5533:	f0 83 03 02          	lock add DWORD PTR [rbx],0x2
    5537:	4c 8b 75 a8          	mov    r14,QWORD PTR [rbp-0x58]
    553b:	41 8b 06             	mov    eax,DWORD PTR [r14]
    553e:	a8 01                	test   al,0x1
    5540:	4c 89 75 a8          	mov    QWORD PTR [rbp-0x58],r14
    5544:	0f 85 e8 05 00 00    	jne    0x5b32
    554a:	49 be 49 47 e5 f7 ff 	movabs r14,0x7ffff7e54749
    5551:	7f 00 00 
    5554:	49 ff c3             	inc    r11
    5557:	49 f7 c3 00 00 00 01 	test   r11,0x1000000
    555e:	0f 85 e1 38 00 00    	jne    0x8e45
    5564:	49 8b 44 24 08       	mov    rax,QWORD PTR [r12+0x8]
    5569:	48 d1 e8             	shr    rax,1
    556c:	49 39 45 00          	cmp    QWORD PTR [r13+0x0],rax
    5570:	0f 82 bc 05 00 00    	jb     0x5b32
    5576:	49 8b 45 20          	mov    rax,QWORD PTR [r13+0x20]
    557a:	4c 8b 75 a0          	mov    r14,QWORD PTR [rbp-0x60]
    557e:	66 49 0f 6e ce       	movq   xmm1,r14
    5583:	66 49 0f 6e c4       	movq   xmm0,r12
    5588:	4c 8b 7d b0          	mov    r15,QWORD PTR [rbp-0x50]
    558c:	4d 8d 7d 50          	lea    r15,[r13+0x50]
    5590:	66 0f 6c c1          	punpcklqdq xmm0,xmm1
    5594:	49 8d 55 70          	lea    rdx,[r13+0x70]
    5598:	4c 89 75 a0          	mov    QWORD PTR [rbp-0x60],r14
    559c:	49 be 7e 47 e5 f7 ff 	movabs r14,0x7ffff7e5477e
    55a3:	7f 00 00 
    55a6:	49 8d b6 d2 f8 ff ff 	lea    rsi,[r14-0x72e]
    55ad:	4c 89 ff             	mov    rdi,r15
    55b0:	49 89 45 70          	mov    QWORD PTR [r13+0x70],rax
    55b4:	41 8b 45 08          	mov    eax,DWORD PTR [r13+0x8]
    55b8:	41 0f 11 45 78       	movups XMMWORD PTR [r13+0x78],xmm0
    55bd:	41 89 85 88 00 00 00 	mov    DWORD PTR [r13+0x88],eax
    55c4:	49 be 9b 47 e5 f7 ff 	movabs r14,0x7ffff7e5479b
    55cb:	7f 00 00 
    55ce:	4d 8d 6d f8          	lea    r13,[r13-0x8]
    55d2:	4d 89 75 00          	mov    QWORD PTR [r13+0x0],r14
    55d6:	4c 89 7d b0          	mov    QWORD PTR [rbp-0x50],r15
    55da:	e9 bb 37 00 00       	jmp    0x8d9a
    55df:	49 be 9b 47 e5 f7 ff 	movabs r14,0x7ffff7e5479b
    55e6:	7f 00 00 
    55e9:	49 ff c3             	inc    r11
    55ec:	49 f7 c3 00 00 00 01 	test   r11,0x1000000
    55f3:	0f 85 4c 38 00 00    	jne    0x8e45
    55f9:	49 8b 45 18          	mov    rax,QWORD PTR [r13+0x18]
    55fd:	48 83 38 00          	cmp    QWORD PTR [rax],0x0
    5601:	0f 88 6d 03 00 00    	js     0x5974
    5607:	49 be af 47 e5 f7 ff 	movabs r14,0x7ffff7e547af
    560e:	7f 00 00 
    5611:	4d 8d 6d f8          	lea    r13,[r13-0x8]
    5615:	4d 89 75 00          	mov    QWORD PTR [r13+0x0],r14
    5619:	e9 14 37 00 00       	jmp    0x8d32
    561e:	4d 8b 55 18          	mov    r10,QWORD PTR [r13+0x18]
    5622:	41 8b 75 40          	mov    esi,DWORD PTR [r13+0x40]
    5626:	31 d2                	xor    edx,edx
    5628:	41 89 45 44          	mov    DWORD PTR [r13+0x44],eax
    562c:	41 b9 ff ff ff ff    	mov    r9d,0xffffffff
    5632:	45 31 c0             	xor    r8d,r8d
    5635:	4c 8b 75 a8          	mov    r14,QWORD PTR [rbp-0x58]
    5639:	4c 89 f7             	mov    rdi,r14
    563c:	b8 ca 00 00 00       	mov    eax,0xca
    5641:	49 be cf 47 e5 f7 ff 	movabs r14,0x7ffff7e547cf
    5648:	7f 00 00 
    564b:	e9 da 37 00 00       	jmp    0x8e2a
    5650:	49 be d1 47 e5 f7 ff 	movabs r14,0x7ffff7e547d1
    5657:	7f 00 00 
    565a:	49 ff c3             	inc    r11
    565d:	49 f7 c3 00 00 00 01 	test   r11,0x1000000
    5664:	0f 85 db 37 00 00    	jne    0x8e45
    566a:	48 3d 00 f0 ff ff    	cmp    rax,0xfffffffffffff000
    5670:	0f 87 e0 03 00 00    	ja     0x5a56
    5676:	41 8b 7d 44          	mov    edi,DWORD PTR [r13+0x44]
    567a:	49 be e6 47 e5 f7 ff 	movabs r14,0x7ffff7e547e6
    5681:	7f 00 00 
    5684:	4d 8d 6d f8          	lea    r13,[r13-0x8]
    5688:	4d 89 75 00          	mov    QWORD PTR [r13+0x0],r14
    568c:	e9 d1 35 00 00       	jmp    0x8c62
    5691:	31 f6                	xor    esi,esi
    5693:	4c 8b 75 b0          	mov    r14,QWORD PTR [rbp-0x50]
    5697:	4c 89 f7             	mov    rdi,r14
    569a:	49 bf f0 47 e5 f7 ff 	movabs r15,0x7ffff7e547f0
    56a1:	7f 00 00 
    56a4:	4d 8d 6d f8          	lea    r13,[r13-0x8]
    56a8:	4d 89 7d 00          	mov    QWORD PTR [r13+0x0],r15
    56ac:	4c 89 75 b0          	mov    QWORD PTR [rbp-0x50],r14
    56b0:	e9 f7 34 00 00       	jmp    0x8bac
    56b5:	49 be f0 47 e5 f7 ff 	movabs r14,0x7ffff7e547f0
    56bc:	7f 00 00 
    56bf:	49 ff c3             	inc    r11
    56c2:	49 f7 c3 00 00 00 01 	test   r11,0x1000000
    56c9:	0f 85 76 37 00 00    	jne    0x8e45
    56cf:	b8 fe ff ff ff       	mov    eax,0xfffffffe
    56d4:	f0 0f c1 03          	lock xadd DWORD PTR [rbx],eax
    56d8:	83 f8 03             	cmp    eax,0x3
    56db:	0f 84 01 02 00 00    	je     0x58e2
    56e1:	4c 8b 75 a8          	mov    r14,QWORD PTR [rbp-0x58]
    56e5:	41 8b 06             	mov    eax,DWORD PTR [r14]
    56e8:	4c 89 75 a8          	mov    QWORD PTR [rbp-0x58],r14
    56ec:	49 be 05 48 e5 f7 ff 	movabs r14,0x7ffff7e54805
    56f3:	7f 00 00 
    56f6:	49 ff c3             	inc    r11
    56f9:	49 f7 c3 00 00 00 01 	test   r11,0x1000000
    5700:	0f 85 3f 37 00 00    	jne    0x8e45
    5706:	a8 01                	test   al,0x1
    5708:	0f 84 55 fb ff ff    	je     0x5263
    570e:	49 be 0d 48 e5 f7 ff 	movabs r14,0x7ffff7e5480d
    5715:	7f 00 00 
    5718:	49 ff c3             	inc    r11
    571b:	49 f7 c3 00 00 00 01 	test   r11,0x1000000
    5722:	0f 85 1d 37 00 00    	jne    0x8e45
    5728:	e9 bc fb ff ff       	jmp    0x52e9
    572d:	41 8b 75 14          	mov    esi,DWORD PTR [r13+0x14]
    5731:	45 31 d2             	xor    r10d,r10d
    5734:	ba ff ff ff 7f       	mov    edx,0x7fffffff
    5739:	4c 8b 75 98          	mov    r14,QWORD PTR [rbp-0x68]
    573d:	4c 89 f7             	mov    rdi,r14
    5740:	b8 ca 00 00 00       	mov    eax,0xca
    5745:	49 be 2c 48 e5 f7 ff 	movabs r14,0x7ffff7e5482c
    574c:	7f 00 00 
    574f:	e9 d6 36 00 00       	jmp    0x8e2a
    5754:	49 be 2e 48 e5 f7 ff 	movabs r14,0x7ffff7e5482e
    575b:	7f 00 00 
    575e:	49 ff c3             	inc    r11
    5761:	49 f7 c3 00 00 00 01 	test   r11,0x1000000
    5768:	0f 85 d7 36 00 00    	jne    0x8e45
    576e:	48 3d 00 f0 ff ff    	cmp    rax,0xfffffffffffff000
    5774:	0f 86 a7 fb ff ff    	jbe    0x5321
    577a:	49 be 3a 48 e5 f7 ff 	movabs r14,0x7ffff7e5483a
    5781:	7f 00 00 
    5784:	49 ff c3             	inc    r11
    5787:	49 f7 c3 00 00 00 01 	test   r11,0x1000000
    578e:	0f 85 b1 36 00 00    	jne    0x8e45
    5794:	83 c0 16             	add    eax,0x16
    5797:	83 e0 f7             	and    eax,0xfffffff7
    579a:	0f 84 81 fb ff ff    	je     0x5321
    57a0:	49 be 4d 48 e5 f7 ff 	movabs r14,0x7ffff7e5484d
    57a7:	7f 00 00 
    57aa:	49 8d be b3 77 00 00 	lea    rdi,[r14+0x77b3]
    57b1:	49 be 52 48 e5 f7 ff 	movabs r14,0x7ffff7e54852
    57b8:	7f 00 00 
    57bb:	4d 8d 6d f8          	lea    r13,[r13-0x8]
    57bf:	4d 89 75 00          	mov    QWORD PTR [r13+0x0],r14
    57c3:	e9 b4 34 00 00       	jmp    0x8c7c
    57c8:	90                   	nop
    57c9:	49 be 58 48 e5 f7 ff 	movabs r14,0x7ffff7e54858
    57d0:	7f 00 00 
    57d3:	49 ff c3             	inc    r11
    57d6:	49 f7 c3 00 00 00 01 	test   r11,0x1000000
    57dd:	0f 85 62 36 00 00    	jne    0x8e45
    57e3:	41 b8 16 00 00 00    	mov    r8d,0x16
    57e9:	e9 5f fb ff ff       	jmp    0x534d
    57ee:	41 8b 4d 08          	mov    ecx,DWORD PTR [r13+0x8]
    57f2:	41 8b 55 0c          	mov    edx,DWORD PTR [r13+0xc]
    57f6:	4c 89 e7             	mov    rdi,r12
    57f9:	49 8b 75 00          	mov    rsi,QWORD PTR [r13+0x0]
    57fd:	49 be 7c 48 e5 f7 ff 	movabs r14,0x7ffff7e5487c
    5804:	7f 00 00 
    5807:	4d 8d 6d f8          	lea    r13,[r13-0x8]
    580b:	4d 89 75 00          	mov    QWORD PTR [r13+0x0],r14
    580f:	e9 ba 35 00 00       	jmp    0x8dce
    5814:	49 be 7c 48 e5 f7 ff 	movabs r14,0x7ffff7e5487c
    581b:	7f 00 00 
    581e:	49 ff c3             	inc    r11
    5821:	49 f7 c3 00 00 00 01 	test   r11,0x1000000
    5828:	0f 85 17 36 00 00    	jne    0x8e45
    582e:	b8 f8 ff ff ff       	mov    eax,0xfffffff8
    5833:	4c 8b 75 98          	mov    r14,QWORD PTR [rbp-0x68]
    5837:	f0 41 0f c1 06       	lock xadd DWORD PTR [r14],eax
    583c:	45 8b 45 10          	mov    r8d,DWORD PTR [r13+0x10]
    5840:	c1 e8 02             	shr    eax,0x2
    5843:	83 f8 03             	cmp    eax,0x3
    5846:	4c 89 75 98          	mov    QWORD PTR [rbp-0x68],r14
    584a:	0f 85 fd fa ff ff    	jne    0x534d
    5850:	41 8b 75 14          	mov    esi,DWORD PTR [r13+0x14]
    5854:	45 31 d2             	xor    r10d,r10d
    5857:	ba ff ff ff 7f       	mov    edx,0x7fffffff
    585c:	4c 8b 75 98          	mov    r14,QWORD PTR [rbp-0x68]
    5860:	4c 89 f7             	mov    rdi,r14
    5863:	b8 ca 00 00 00       	mov    eax,0xca
    5868:	49 be ac 48 e5 f7 ff 	movabs r14,0x7ffff7e548ac
    586f:	7f 00 00 
    5872:	e9 b3 35 00 00       	jmp    0x8e2a
    5877:	49 be ae 48 e5 f7 ff 	movabs r14,0x7ffff7e548ae
    587e:	7f 00 00 
    5881:	49 ff c3             	inc    r11
    5884:	49 f7 c3 00 00 00 01 	test   r11,0x1000000
    588b:	0f 85 b4 35 00 00    	jne    0x8e45
    5891:	48 3d 00 f0 ff ff    	cmp    rax,0xfffffffffffff000
    5897:	0f 86 b0 fa ff ff    	jbe    0x534d
    589d:	49 be ba 48 e5 f7 ff 	movabs r14,0x7ffff7e548ba
    58a4:	7f 00 00 
    58a7:	49 ff c3             	inc    r11
    58aa:	49 f7 c3 00 00 00 01 	test   r11,0x1000000
    58b1:	0f 85 8e 35 00 00    	jne    0x8e45
    58b7:	83 c0 16             	add    eax,0x16
    58ba:	83 e0 f7             	and    eax,0xfffffff7
    58bd:	0f 85 dd fe ff ff    	jne    0x57a0
    58c3:	49 be c2 48 e5 f7 ff 	movabs r14,0x7ffff7e548c2
    58ca:	7f 00 00 
    58cd:	49 ff c3             	inc    r11
    58d0:	49 f7 c3 00 00 00 01 	test   r11,0x1000000
    58d7:	0f 85 68 35 00 00    	jne    0x8e45
    58dd:	e9 6b fa ff ff       	jmp    0x534d
    58e2:	f0 83 23 fe          	lock and DWORD PTR [rbx],0xfffffffe
    58e6:	45 31 d2             	xor    r10d,r10d
    58e9:	ba ff ff ff 7f       	mov    edx,0x7fffffff
    58ee:	b8 ca 00 00 00       	mov    eax,0xca
    58f3:	41 8b 75 14          	mov    esi,DWORD PTR [r13+0x14]
    58f7:	48 89 df             	mov    rdi,rbx
    58fa:	49 be e8 48 e5 f7 ff 	movabs r14,0x7ffff7e548e8
    5901:	7f 00 00 
    5904:	e9 21 35 00 00       	jmp    0x8e2a
    5909:	49 be ea 48 e5 f7 ff 	movabs r14,0x7ffff7e548ea
    5910:	7f 00 00 
    5913:	49 ff c3             	inc    r11
    5916:	49 f7 c3 00 00 00 01 	test   r11,0x1000000
    591d:	0f 85 22 35 00 00    	jne    0x8e45
    5923:	48 3d 00 f0 ff ff    	cmp    rax,0xfffffffffffff000
    5929:	0f 86 b2 fd ff ff    	jbe    0x56e1
    592f:	49 be f6 48 e5 f7 ff 	movabs r14,0x7ffff7e548f6
    5936:	7f 00 00 
    5939:	49 ff c3             	inc    r11
    593c:	49 f7 c3 00 00 00 01 	test   r11,0x1000000
    5943:	0f 85 fc 34 00 00    	jne    0x8e45
    5949:	83 c0 16             	add    eax,0x16
    594c:	83 e0 f7             	and    eax,0xfffffff7
    594f:	0f 85 4b fe ff ff    	jne    0x57a0
    5955:	49 be 02 49 e5 f7 ff 	movabs r14,0x7ffff7e54902
    595c:	7f 00 00 
    595f:	49 ff c3             	inc    r11
    5962:	49 f7 c3 00 00 00 01 	test   r11,0x1000000
    5969:	0f 85 d6 34 00 00    	jne    0x8e45
    596f:	e9 6d fd ff ff       	jmp    0x56e1
    5974:	31 f6                	xor    esi,esi
    5976:	4c 8b 75 b0          	mov    r14,QWORD PTR [rbp-0x50]
    597a:	4c 89 f7             	mov    rdi,r14
    597d:	49 bf 1a 49 e5 f7 ff 	movabs r15,0x7ffff7e5491a
    5984:	7f 00 00 
    5987:	4d 8d 6d f8          	lea    r13,[r13-0x8]
    598b:	4d 89 7d 00          	mov    QWORD PTR [r13+0x0],r15
    598f:	4c 89 75 b0          	mov    QWORD PTR [rbp-0x50],r14
    5993:	e9 14 32 00 00       	jmp    0x8bac
    5998:	49 be 1a 49 e5 f7 ff 	movabs r14,0x7ffff7e5491a
    599f:	7f 00 00 
    59a2:	49 ff c3             	inc    r11
    59a5:	49 f7 c3 00 00 00 01 	test   r11,0x1000000
    59ac:	0f 85 93 34 00 00    	jne    0x8e45
    59b2:	b8 fe ff ff ff       	mov    eax,0xfffffffe
    59b7:	f0 0f c1 03          	lock xadd DWORD PTR [rbx],eax
    59bb:	83 f8 03             	cmp    eax,0x3
    59be:	0f 84 2c 02 00 00    	je     0x5bf0
    59c4:	41 8b 4d 08          	mov    ecx,DWORD PTR [r13+0x8]
    59c8:	41 8b 55 0c          	mov    edx,DWORD PTR [r13+0xc]
    59cc:	4c 89 e7             	mov    rdi,r12
    59cf:	49 8b 75 00          	mov    rsi,QWORD PTR [r13+0x0]
    59d3:	49 be 40 49 e5 f7 ff 	movabs r14,0x7ffff7e54940
    59da:	7f 00 00 
    59dd:	4d 8d 6d f8          	lea    r13,[r13-0x8]
    59e1:	4d 89 75 00          	mov    QWORD PTR [r13+0x0],r14
    59e5:	e9 e4 33 00 00       	jmp    0x8dce
    59ea:	49 be 40 49 e5 f7 ff 	movabs r14,0x7ffff7e54940
    59f1:	7f 00 00 
    59f4:	49 ff c3             	inc    r11
    59f7:	49 f7 c3 00 00 00 01 	test   r11,0x1000000
    59fe:	0f 85 41 34 00 00    	jne    0x8e45
    5a04:	41 c7 45 10 6e 00 00 	mov    DWORD PTR [r13+0x10],0x6e
    5a0b:	00 
    5a0c:	e9 d8 f8 ff ff       	jmp    0x52e9
    5a11:	49 be 4d 49 e5 f7 ff 	movabs r14,0x7ffff7e5494d
    5a18:	7f 00 00 
    5a1b:	49 ff c3             	inc    r11
    5a1e:	49 f7 c3 00 00 00 01 	test   r11,0x1000000
    5a25:	0f 85 1a 34 00 00    	jne    0x8e45
    5a2b:	83 c0 16             	add    eax,0x16
    5a2e:	83 e0 f7             	and    eax,0xfffffff7
    5a31:	0f 85 69 fd ff ff    	jne    0x57a0
    5a37:	49 be 59 49 e5 f7 ff 	movabs r14,0x7ffff7e54959
    5a3e:	7f 00 00 
    5a41:	49 ff c3             	inc    r11
    5a44:	49 f7 c3 00 00 00 01 	test   r11,0x1000000
    5a4b:	0f 85 f4 33 00 00    	jne    0x8e45
    5a51:	e9 82 fa ff ff       	jmp    0x54d8
    5a56:	41 8b 7d 44          	mov    edi,DWORD PTR [r13+0x44]
    5a5a:	49 89 45 48          	mov    QWORD PTR [r13+0x48],rax
    5a5e:	49 be 6e 49 e5 f7 ff 	movabs r14,0x7ffff7e5496e
    5a65:	7f 00 00 
    5a68:	4d 8d 6d f8          	lea    r13,[r13-0x8]
    5a6c:	4d 89 75 00          	mov    QWORD PTR [r13+0x0],r14
    5a70:	e9 ed 31 00 00       	jmp    0x8c62
    5a75:	49 be 6e 49 e5 f7 ff 	movabs r14,0x7ffff7e5496e
    5a7c:	7f 00 00 
    5a7f:	49 ff c3             	inc    r11
    5a82:	49 f7 c3 00 00 00 01 	test   r11,0x1000000
    5a89:	0f 85 b6 33 00 00    	jne    0x8e45
    5a8f:	49 8b 45 48          	mov    rax,QWORD PTR [r13+0x48]
    5a93:	83 f8 92             	cmp    eax,0xffffff92
    5a96:	0f 84 d8 fe ff ff    	je     0x5974
    5a9c:	49 be 78 49 e5 f7 ff 	movabs r14,0x7ffff7e54978
    5aa3:	7f 00 00 
    5aa6:	49 ff c3             	inc    r11
    5aa9:	49 f7 c3 00 00 00 01 	test   r11,0x1000000
    5ab0:	0f 85 8f 33 00 00    	jne    0x8e45
    5ab6:	8d 48 0b             	lea    ecx,[rax+0xb]
    5ab9:	83 f9 0b             	cmp    ecx,0xb
    5abc:	0f 87 de fc ff ff    	ja     0x57a0
    5ac2:	49 be 84 49 e5 f7 ff 	movabs r14,0x7ffff7e54984
    5ac9:	7f 00 00 
    5acc:	49 ff c3             	inc    r11
    5acf:	49 f7 c3 00 00 00 01 	test   r11,0x1000000
    5ad6:	0f 85 69 33 00 00    	jne    0x8e45
    5adc:	b8 01 00 00 00       	mov    eax,0x1
    5ae1:	48 d3 e0             	shl    rax,cl
    5ae4:	a9 81 08 00 00       	test   eax,0x881
    5ae9:	0f 84 b1 fc ff ff    	je     0x57a0
    5aef:	31 f6                	xor    esi,esi
    5af1:	4c 8b 75 b0          	mov    r14,QWORD PTR [rbp-0x50]
    5af5:	4c 89 f7             	mov    rdi,r14
    5af8:	49 bf a1 49 e5 f7 ff 	movabs r15,0x7ffff7e549a1
    5aff:	7f 00 00 
    5b02:	4d 8d 6d f8          	lea    r13,[r13-0x8]
    5b06:	4d 89 7d 00          	mov    QWORD PTR [r13+0x0],r15
    5b0a:	4c 89 75 b0          	mov    QWORD PTR [rbp-0x50],r14
    5b0e:	e9 99 30 00 00       	jmp    0x8bac
    5b13:	49 be a1 49 e5 f7 ff 	movabs r14,0x7ffff7e549a1
    5b1a:	7f 00 00 
    5b1d:	49 ff c3             	inc    r11
    5b20:	49 f7 c3 00 00 00 01 	test   r11,0x1000000
    5b27:	0f 85 18 33 00 00    	jne    0x8e45
    5b2d:	e9 83 fb ff ff       	jmp    0x56b5
    5b32:	49 be b0 49 e5 f7 ff 	movabs r14,0x7ffff7e549b0
    5b39:	7f 00 00 
    5b3c:	49 ff c3             	inc    r11
    5b3f:	49 f7 c3 00 00 00 01 	test   r11,0x1000000
    5b46:	0f 85 f9 32 00 00    	jne    0x8e45
    5b4c:	b8 fe ff ff ff       	mov    eax,0xfffffffe
    5b51:	f0 0f c1 03          	lock xadd DWORD PTR [rbx],eax
    5b55:	83 f8 03             	cmp    eax,0x3
    5b58:	0f 85 8b f7 ff ff    	jne    0x52e9
    5b5e:	f0 83 23 fe          	lock and DWORD PTR [rbx],0xfffffffe
    5b62:	45 31 d2             	xor    r10d,r10d
    5b65:	ba ff ff ff 7f       	mov    edx,0x7fffffff
    5b6a:	b8 ca 00 00 00       	mov    eax,0xca
    5b6f:	41 8b 75 14          	mov    esi,DWORD PTR [r13+0x14]
    5b73:	48 89 df             	mov    rdi,rbx
    5b76:	49 be da 49 e5 f7 ff 	movabs r14,0x7ffff7e549da
    5b7d:	7f 00 00 
    5b80:	e9 a5 32 00 00       	jmp    0x8e2a
    5b85:	49 be dc 49 e5 f7 ff 	movabs r14,0x7ffff7e549dc
    5b8c:	7f 00 00 
    5b8f:	49 ff c3             	inc    r11
    5b92:	49 f7 c3 00 00 00 01 	test   r11,0x1000000
    5b99:	0f 85 a6 32 00 00    	jne    0x8e45
    5b9f:	48 3d 00 f0 ff ff    	cmp    rax,0xfffffffffffff000
    5ba5:	0f 86 3e f7 ff ff    	jbe    0x52e9
    5bab:	49 be e8 49 e5 f7 ff 	movabs r14,0x7ffff7e549e8
    5bb2:	7f 00 00 
    5bb5:	49 ff c3             	inc    r11
    5bb8:	49 f7 c3 00 00 00 01 	test   r11,0x1000000
    5bbf:	0f 85 80 32 00 00    	jne    0x8e45
    5bc5:	83 c0 16             	add    eax,0x16
    5bc8:	83 e0 f7             	and    eax,0xfffffff7
    5bcb:	0f 85 cf fb ff ff    	jne    0x57a0
    5bd1:	49 be f4 49 e5 f7 ff 	movabs r14,0x7ffff7e549f4
    5bd8:	7f 00 00 
    5bdb:	49 ff c3             	inc    r11
    5bde:	49 f7 c3 00 00 00 01 	test   r11,0x1000000
    5be5:	0f 85 5a 32 00 00    	jne    0x8e45
    5beb:	e9 f9 f6 ff ff       	jmp    0x52e9
    5bf0:	f0 83 23 fe          	lock and DWORD PTR [rbx],0xfffffffe
    5bf4:	45 31 d2             	xor    r10d,r10d
    5bf7:	ba ff ff ff 7f       	mov    edx,0x7fffffff
    5bfc:	b8 ca 00 00 00       	mov    eax,0xca
    5c01:	41 8b 75 14          	mov    esi,DWORD PTR [r13+0x14]
    5c05:	48 89 df             	mov    rdi,rbx
    5c08:	49 be 11 4a e5 f7 ff 	movabs r14,0x7ffff7e54a11
    5c0f:	7f 00 00 
    5c12:	e9 13 32 00 00       	jmp    0x8e2a
    5c17:	49 be 13 4a e5 f7 ff 	movabs r14,0x7ffff7e54a13
    5c1e:	7f 00 00 
    5c21:	49 ff c3             	inc    r11
    5c24:	49 f7 c3 00 00 00 01 	test   r11,0x1000000
    5c2b:	0f 85 14 32 00 00    	jne    0x8e45
    5c31:	48 3d 00 f0 ff ff    	cmp    rax,0xfffffffffffff000
    5c37:	0f 86 87 fd ff ff    	jbe    0x59c4
    5c3d:	49 be 1f 4a e5 f7 ff 	movabs r14,0x7ffff7e54a1f
    5c44:	7f 00 00 
    5c47:	49 ff c3             	inc    r11
    5c4a:	49 f7 c3 00 00 00 01 	test   r11,0x1000000
    5c51:	0f 85 ee 31 00 00    	jne    0x8e45
    5c57:	83 c0 16             	add    eax,0x16
    5c5a:	83 e0 f7             	and    eax,0xfffffff7
    5c5d:	0f 85 3d fb ff ff    	jne    0x57a0
    5c63:	49 be 2b 4a e5 f7 ff 	movabs r14,0x7ffff7e54a2b
    5c6a:	7f 00 00 
    5c6d:	49 ff c3             	inc    r11
    5c70:	49 f7 c3 00 00 00 01 	test   r11,0x1000000
    5c77:	0f 85 c8 31 00 00    	jne    0x8e45
    5c7d:	e9 42 fd ff ff       	jmp    0x59c4
    5c82:	49 be 35 4a e5 f7 ff 	movabs r14,0x7ffff7e54a35
    5c89:	7f 00 00 
    5c8c:	4d 8d 6d f8          	lea    r13,[r13-0x8]
    5c90:	4d 89 75 00          	mov    QWORD PTR [r13+0x0],r14
    5c94:	e9 b3 30 00 00       	jmp    0x8d4c
    5c99:	49 be 35 4a e5 f7 ff 	movabs r14,0x7ffff7e54a35
    5ca0:	7f 00 00 
    5ca3:	49 ff c3             	inc    r11
    5ca6:	49 f7 c3 00 00 00 01 	test   r11,0x1000000
    5cad:	0f 85 92 31 00 00    	jne    0x8e45
    5cb3:	90                   	nop
    5cb4:	90                   	nop
    5cb5:	4d 8d 6d f8          	lea    r13,[r13-0x8]
    5cb9:	4c 8b 75 b0          	mov    r14,QWORD PTR [rbp-0x50]
    5cbd:	4d 89 75 00          	mov    QWORD PTR [r13+0x0],r14
    5cc1:	4d 8d 6d f8          	lea    r13,[r13-0x8]
    5cc5:	4c 8b 7d a8          	mov    r15,QWORD PTR [rbp-0x58]
    5cc9:	4d 89 7d 00          	mov    QWORD PTR [r13+0x0],r15
    5ccd:	4d 8d 6d f8          	lea    r13,[r13-0x8]
    5cd1:	4c 89 75 b0          	mov    QWORD PTR [rbp-0x50],r14
    5cd5:	4c 8b 75 a0          	mov    r14,QWORD PTR [rbp-0x60]
    5cd9:	4d 89 75 00          	mov    QWORD PTR [r13+0x0],r14
    5cdd:	4d 8d 6d f8          	lea    r13,[r13-0x8]
    5ce1:	4c 89 75 a0          	mov    QWORD PTR [rbp-0x60],r14
    5ce5:	4c 8b 75 98          	mov    r14,QWORD PTR [rbp-0x68]
    5ce9:	4d 89 75 00          	mov    QWORD PTR [r13+0x0],r14
    5ced:	4d 8d 6d f8          	lea    r13,[r13-0x8]
    5cf1:	4d 89 65 00          	mov    QWORD PTR [r13+0x0],r12
    5cf5:	4d 8d 6d f8          	lea    r13,[r13-0x8]
    5cf9:	49 89 5d 00          	mov    QWORD PTR [r13+0x0],rbx
    5cfd:	49 81 ed a8 00 00 00 	sub    r13,0xa8
    5d04:	4c 89 75 98          	mov    QWORD PTR [rbp-0x68],r14
    5d08:	4c 8b 75 80          	mov    r14,QWORD PTR [rbp-0x80]
    5d0c:	49 8b 46 28          	mov    rax,QWORD PTR [r14+0x28]
    5d10:	49 89 85 98 00 00 00 	mov    QWORD PTR [r13+0x98],rax
    5d17:	31 c0                	xor    eax,eax
    5d19:	48 81 79 08 ff c9 9a 	cmp    QWORD PTR [rcx+0x8],0x3b9ac9ff
    5d20:	3b 
    5d21:	4c 89 7d a8          	mov    QWORD PTR [rbp-0x58],r15
    5d25:	0f 87 9b 02 00 00    	ja     0x5fc6
    5d2b:	49 be 76 4a e5 f7 ff 	movabs r14,0x7ffff7e54a76
    5d32:	7f 00 00 
    5d35:	49 ff c3             	inc    r11
    5d38:	49 f7 c3 00 00 00 01 	test   r11,0x1000000
    5d3f:	0f 85 00 31 00 00    	jne    0x8e45
    5d45:	4c 8b 75 a8          	mov    r14,QWORD PTR [rbp-0x58]
    5d49:	41 89 d6             	mov    r14d,edx
    5d4c:	83 fa 01             	cmp    edx,0x1
    5d4f:	4c 89 75 a8          	mov    QWORD PTR [rbp-0x58],r14
    5d53:	0f 87 6d 02 00 00    	ja     0x5fc6
    5d59:	49 be 82 4a e5 f7 ff 	movabs r14,0x7ffff7e54a82
    5d60:	7f 00 00 
    5d63:	49 ff c3             	inc    r11
    5d66:	49 f7 c3 00 00 00 01 	test   r11,0x1000000
    5d6d:	0f 85 d2 30 00 00    	jne    0x8e45
    5d73:	49 89 fc             	mov    r12,rdi
    5d76:	4c 8b 75 98          	mov    r14,QWORD PTR [rbp-0x68]
    5d7a:	49 89 f6             	mov    r14,rsi
    5d7d:	48 89 cb             	mov    rbx,rcx
    5d80:	90                   	nop
    5d81:	b8 02 00 00 00       	mov    eax,0x2
    5d86:	f0 48 0f c1 07       	lock xadd QWORD PTR [rdi],rax
    5d8b:	89 c6                	mov    esi,eax
    5d8d:	49 89 45 20          	mov    QWORD PTR [r13+0x20],rax
    5d91:	48 d1 e8             	shr    rax,1
    5d94:	4c 8b 7d b0          	mov    r15,QWORD PTR [rbp-0x50]
    5d98:	4c 8d 7f 24          	lea    r15,[rdi+0x24]
    5d9c:	83 e6 01             	and    esi,0x1
    5d9f:	49 89 45 00          	mov    QWORD PTR [r13+0x0],rax
    5da3:	b8 08 00 00 00       	mov    eax,0x8
    5da8:	41 89 75 0c          	mov    DWORD PTR [r13+0xc],esi
    5dac:	f0 41 0f c1 07       	lock xadd DWORD PTR [r15],eax
    5db1:	31 c9                	xor    ecx,ecx
    5db3:	83 e0 01             	and    eax,0x1
    5db6:	41 c7 45 1c 81 00 00 	mov    DWORD PTR [r13+0x1c],0x81
    5dbd:	00 
    5dbe:	41 89 45 08          	mov    DWORD PTR [r13+0x8],eax
    5dc2:	4c 89 7d b0          	mov    QWORD PTR [rbp-0x50],r15
    5dc6:	4c 89 75 98          	mov    QWORD PTR [rbp-0x68],r14
    5dca:	74 11                	je     0x5ddd
    5dcc:	41 89 45 1c          	mov    DWORD PTR [r13+0x1c],eax
    5dd0:	b9 80 00 00 00       	mov    ecx,0x80
    5dd5:	41 c7 45 08 80 00 00 	mov    DWORD PTR [r13+0x8],0x80
    5ddc:	00 
    5ddd:	31 f6                	xor    esi,esi
    5ddf:	4c 8b 75 98          	mov    r14,QWORD PTR [rbp-0x68]
    5de3:	4c 89 f7             	mov    rdi,r14
    5de6:	41 89 4d 10          	mov    DWORD PTR [r13+0x10],ecx
    5dea:	49 bf eb 4a e5 f7 ff 	movabs r15,0x7ffff7e54aeb
    5df1:	7f 00 00 
    5df4:	4d 8d 6d f8          	lea    r13,[r13-0x8]
    5df8:	4d 89 7d 00          	mov    QWORD PTR [r13+0x0],r15
    5dfc:	4c 89 75 98          	mov    QWORD PTR [rbp-0x68],r14
    5e00:	e9 32 c9 ff ff       	jmp    0x2737
    5e05:	49 be eb 4a e5 f7 ff 	movabs r14,0x7ffff7e54aeb
    5e0c:	7f 00 00 
    5e0f:	49 ff c3             	inc    r11
    5e12:	49 f7 c3 00 00 00 01 	test   r11,0x1000000
    5e19:	0f 85 26 30 00 00    	jne    0x8e45
    5e1f:	41 8b 4d 10          	mov    ecx,DWORD PTR [r13+0x10]
    5e23:	85 c0                	test   eax,eax
    5e25:	41 89 45 18          	mov    DWORD PTR [r13+0x18],eax
    5e29:	0f 85 b5 06 00 00    	jne    0x64e4
    5e2f:	49 be fb 4a e5 f7 ff 	movabs r14,0x7ffff7e54afb
    5e36:	7f 00 00 
    5e39:	49 ff c3             	inc    r11
    5e3c:	49 f7 c3 00 00 00 01 	test   r11,0x1000000
    5e43:	0f 85 fc 2f 00 00    	jne    0x8e45
    5e49:	41 8b 45 0c          	mov    eax,DWORD PTR [r13+0xc]
    5e4d:	49 89 45 10          	mov    QWORD PTR [r13+0x10],rax
    5e51:	48 c1 e0 02          	shl    rax,0x2
    5e55:	49 89 45 28          	mov    QWORD PTR [r13+0x28],rax
    5e59:	4c 8b 75 a0          	mov    r14,QWORD PTR [rbp-0x60]
    5e5d:	4e 8d 74 20 28       	lea    r14,[rax+r12*1+0x28]
    5e62:	41 8b 06             	mov    eax,DWORD PTR [r14]
    5e65:	a8 01                	test   al,0x1
    5e67:	4c 89 75 a0          	mov    QWORD PTR [rbp-0x60],r14
    5e6b:	0f 85 d5 00 00 00    	jne    0x5f46
    5e71:	4c 8b 75 a8          	mov    r14,QWORD PTR [rbp-0x58]
    5e75:	41 83 fe 01          	cmp    r14d,0x1
    5e79:	49 8d 7c 24 10       	lea    rdi,[r12+0x10]
    5e7e:	19 d2                	sbb    edx,edx
    5e80:	49 89 7d 30          	mov    QWORD PTR [r13+0x30],rdi
    5e84:	81 e2 00 01 00 00    	and    edx,0x100
    5e8a:	80 ca 89             	or     dl,0x89
    5e8d:	31 ca                	xor    edx,ecx
    5e8f:	41 89 55 40          	mov    DWORD PTR [r13+0x40],edx
    5e93:	4c 89 75 a8          	mov    QWORD PTR [rbp-0x58],r14
    5e97:	49 be 38 4b e5 f7 ff 	movabs r14,0x7ffff7e54b38
    5e9e:	7f 00 00 
    5ea1:	49 ff c3             	inc    r11
    5ea4:	49 f7 c3 00 00 00 01 	test   r11,0x1000000
    5eab:	0f 85 94 2f 00 00    	jne    0x8e45
    5eb1:	85 c0                	test   eax,eax
    5eb3:	0f 84 a9 01 00 00    	je     0x6062
    5eb9:	49 be 40 4b e5 f7 ff 	movabs r14,0x7ffff7e54b40
    5ec0:	7f 00 00 
    5ec3:	49 ff c3             	inc    r11
    5ec6:	49 f7 c3 00 00 00 01 	test   r11,0x1000000
    5ecd:	0f 85 72 2f 00 00    	jne    0x8e45
    5ed3:	8d 50 fe             	lea    edx,[rax-0x2]
    5ed6:	4c 8b 75 a0          	mov    r14,QWORD PTR [rbp-0x60]
    5eda:	f0 41 0f b1 16       	lock cmpxchg DWORD PTR [r14],edx
    5edf:	4c 89 75 a0          	mov    QWORD PTR [rbp-0x60],r14
    5ee3:	0f 85 57 03 00 00    	jne    0x6240
    5ee9:	49 be 4f 4b e5 f7 ff 	movabs r14,0x7ffff7e54b4f
    5ef0:	7f 00 00 
    5ef3:	49 ff c3             	inc    r11
    5ef6:	49 f7 c3 00 00 00 01 	test   r11,0x1000000
    5efd:	0f 85 42 2f 00 00    	jne    0x8e45
    5f03:	49 8b 54 24 08       	mov    rdx,QWORD PTR [r12+0x8]
    5f08:	49 8d 4c 24 08       	lea    rcx,[r12+0x8]
    5f0d:	48 89 d0             	mov    rax,rdx
    5f10:	48 d1 e8             	shr    rax,1
    5f13:	49 39 45 00          	cmp    QWORD PTR [r13+0x0],rax
    5f17:	73 2d                	jae    0x5f46
    5f19:	49 be 63 4b e5 f7 ff 	movabs r14,0x7ffff7e54b63
    5f20:	7f 00 00 
    5f23:	49 ff c3             	inc    r11
    5f26:	49 f7 c3 00 00 00 01 	test   r11,0x1000000
    5f2d:	0f 85 12 2f 00 00    	jne    0x8e45
    5f33:	48 89 d0             	mov    rax,rdx
    5f36:	48 f7 d0             	not    rax
    5f39:	83 e0 01             	and    eax,0x1
    5f3c:	49 39 45 10          	cmp    QWORD PTR [r13+0x10],rax
    5f40:	0f 84 d7 03 00 00    	je     0x631d
    5f46:	49 be 77 4b e5 f7 ff 	movabs r14,0x7ffff7e54b77
    5f4d:	7f 00 00 
    5f50:	49 ff c3             	inc    r11
    5f53:	49 f7 c3 00 00 00 01 	test   r11,0x1000000
    5f5a:	0f 85 e5 2e 00 00    	jne    0x8e45
    5f60:	b8 f8 ff ff ff       	mov    eax,0xfffffff8
    5f65:	4c 8b 75 b0          	mov    r14,QWORD PTR [rbp-0x50]
    5f69:	f0 41 0f c1 06       	lock xadd DWORD PTR [r14],eax
    5f6e:	c1 e8 02             	shr    eax,0x2
    5f71:	83 f8 03             	cmp    eax,0x3
    5f74:	4c 89 75 b0          	mov    QWORD PTR [rbp-0x50],r14
    5f78:	0f 84 03 03 00 00    	je     0x6281
    5f7e:	4c 8b 75 98          	mov    r14,QWORD PTR [rbp-0x68]
    5f82:	4c 89 f7             	mov    rdi,r14
    5f85:	49 bf 95 4b e5 f7 ff 	movabs r15,0x7ffff7e54b95
    5f8c:	7f 00 00 
    5f8f:	4d 8d 6d f8          	lea    r13,[r13-0x8]
    5f93:	4d 89 7d 00          	mov    QWORD PTR [r13+0x0],r15
    5f97:	4c 89 75 98          	mov    QWORD PTR [rbp-0x68],r14
    5f9b:	e9 45 2e 00 00       	jmp    0x8de5
    5fa0:	49 be 95 4b e5 f7 ff 	movabs r14,0x7ffff7e54b95
    5fa7:	7f 00 00 
    5faa:	49 ff c3             	inc    r11
    5fad:	49 f7 c3 00 00 00 01 	test   r11,0x1000000
    5fb4:	0f 85 8b 2e 00 00    	jne    0x8e45
    5fba:	41 89 c0             	mov    r8d,eax
    5fbd:	85 c0                	test   eax,eax
    5fbf:	45 0f 44 45 18       	cmove  r8d,DWORD PTR [r13+0x18]
    5fc4:	eb 06                	jmp    0x5fcc
    5fc6:	41 b8 16 00 00 00    	mov    r8d,0x16
    5fcc:	49 be ae 4b e5 f7 ff 	movabs r14,0x7ffff7e54bae
    5fd3:	7f 00 00 
    5fd6:	49 ff c3             	inc    r11
    5fd9:	49 f7 c3 00 00 00 01 	test   r11,0x1000000
    5fe0:	0f 85 5f 2e 00 00    	jne    0x8e45
    5fe6:	49 8b 85 98 00 00 00 	mov    rax,QWORD PTR [r13+0x98]
    5fed:	4c 8b 75 80          	mov    r14,QWORD PTR [rbp-0x80]
    5ff1:	49 33 46 28          	xor    rax,QWORD PTR [r14+0x28]
    5ff5:	0f 85 cb 08 00 00    	jne    0x68c6
    5ffb:	49 81 c5 a8 00 00 00 	add    r13,0xa8
    6002:	44 89 c0             	mov    eax,r8d
    6005:	49 8b 5d 00          	mov    rbx,QWORD PTR [r13+0x0]
    6009:	4d 8d 6d 08          	lea    r13,[r13+0x8]
    600d:	4d 8b 65 00          	mov    r12,QWORD PTR [r13+0x0]
    6011:	4d 8d 6d 08          	lea    r13,[r13+0x8]
    6015:	4c 8b 75 98          	mov    r14,QWORD PTR [rbp-0x68]
    6019:	4d 8b 75 00          	mov    r14,QWORD PTR [r13+0x0]
    601d:	4d 8d 6d 08          	lea    r13,[r13+0x8]
    6021:	4c 8b 7d a0          	mov    r15,QWORD PTR [rbp-0x60]
    6025:	4d 8b 7d 00          	mov    r15,QWORD PTR [r13+0x0]
    6029:	4d 8d 6d 08          	lea    r13,[r13+0x8]
    602d:	4c 89 75 98          	mov    QWORD PTR [rbp-0x68],r14
    6031:	4c 8b 75 a8          	mov    r14,QWORD PTR [rbp-0x58]
    6035:	4d 8b 75 00          	mov    r14,QWORD PTR [r13+0x0]
    6039:	4d 8d 6d 08          	lea    r13,[r13+0x8]
    603d:	4c 89 75 a8          	mov    QWORD PTR [rbp-0x58],r14
    6041:	4c 8b 75 b0          	mov    r14,QWORD PTR [rbp-0x50]
    6045:	4d 8b 75 00          	mov    r14,QWORD PTR [r13+0x0]
    6049:	4d 8d 6d 08          	lea    r13,[r13+0x8]
    604d:	4c 89 75 b0          	mov    QWORD PTR [rbp-0x50],r14
    6051:	4d 8b 75 00          	mov    r14,QWORD PTR [r13+0x0]
    6055:	4d 8d 6d 08          	lea    r13,[r13+0x8]
    6059:	4c 89 7d a0          	mov    QWORD PTR [rbp-0x60],r15
    605d:	e9 f8 2a 00 00       	jmp    0x8b5a
    6062:	49 be e0 4b e5 f7 ff 	movabs r14,0x7ffff7e54be0
    6069:	7f 00 00 
    606c:	49 ff c3             	inc    r11
    606f:	49 f7 c3 00 00 00 01 	test   r11,0x1000000
    6076:	0f 85 c9 2d 00 00    	jne    0x8e45
    607c:	49 8b 45 30          	mov    rax,QWORD PTR [r13+0x30]
    6080:	49 03 45 28          	add    rax,QWORD PTR [r13+0x28]
    6084:	49 89 45 38          	mov    QWORD PTR [r13+0x38],rax
    6088:	f0 83 00 02          	lock add DWORD PTR [rax],0x2
    608c:	4c 8b 75 a0          	mov    r14,QWORD PTR [rbp-0x60]
    6090:	41 8b 06             	mov    eax,DWORD PTR [r14]
    6093:	a8 01                	test   al,0x1
    6095:	4c 89 75 a0          	mov    QWORD PTR [rbp-0x60],r14
    6099:	0f 85 7f 03 00 00    	jne    0x641e
    609f:	49 be ff 4b e5 f7 ff 	movabs r14,0x7ffff7e54bff
    60a6:	7f 00 00 
    60a9:	49 ff c3             	inc    r11
    60ac:	49 f7 c3 00 00 00 01 	test   r11,0x1000000
    60b3:	0f 85 8c 2d 00 00    	jne    0x8e45
    60b9:	49 8b 44 24 08       	mov    rax,QWORD PTR [r12+0x8]
    60be:	48 d1 e8             	shr    rax,1
    60c1:	49 39 45 00          	cmp    QWORD PTR [r13+0x0],rax
    60c5:	0f 82 53 03 00 00    	jb     0x641e
    60cb:	49 8b 45 20          	mov    rax,QWORD PTR [r13+0x20]
    60cf:	4c 8b 75 98          	mov    r14,QWORD PTR [rbp-0x68]
    60d3:	66 49 0f 6e ce       	movq   xmm1,r14
    60d8:	66 49 0f 6e c4       	movq   xmm0,r12
    60dd:	4c 8b 7d a8          	mov    r15,QWORD PTR [rbp-0x58]
    60e1:	4d 8d 7d 50          	lea    r15,[r13+0x50]
    60e5:	66 0f 6c c1          	punpcklqdq xmm0,xmm1
    60e9:	49 8d 55 70          	lea    rdx,[r13+0x70]
    60ed:	4c 89 75 98          	mov    QWORD PTR [rbp-0x68],r14
    60f1:	49 be 34 4c e5 f7 ff 	movabs r14,0x7ffff7e54c34
    60f8:	7f 00 00 
    60fb:	49 8d b6 1c f4 ff ff 	lea    rsi,[r14-0xbe4]
    6102:	4c 89 ff             	mov    rdi,r15
    6105:	49 89 45 70          	mov    QWORD PTR [r13+0x70],rax
    6109:	41 8b 45 08          	mov    eax,DWORD PTR [r13+0x8]
    610d:	41 0f 11 45 78       	movups XMMWORD PTR [r13+0x78],xmm0
    6112:	41 89 85 88 00 00 00 	mov    DWORD PTR [r13+0x88],eax
    6119:	49 be 51 4c e5 f7 ff 	movabs r14,0x7ffff7e54c51
    6120:	7f 00 00 
    6123:	4d 8d 6d f8          	lea    r13,[r13-0x8]
    6127:	4d 89 75 00          	mov    QWORD PTR [r13+0x0],r14
    612b:	4c 89 7d a8          	mov    QWORD PTR [rbp-0x58],r15
    612f:	e9 66 2c 00 00       	jmp    0x8d9a
    6134:	49 be 51 4c e5 f7 ff 	movabs r14,0x7ffff7e54c51
    613b:	7f 00 00 
    613e:	49 ff c3             	inc    r11
    6141:	49 f7 c3 00 00 00 01 	test   r11,0x1000000
    6148:	0f 85 f7 2c 00 00    	jne    0x8e45
    614e:	48 83 3b 00          	cmp    QWORD PTR [rbx],0x0
    6152:	0f 88 16 05 00 00    	js     0x666e
    6158:	49 be 60 4c e5 f7 ff 	movabs r14,0x7ffff7e54c60
    615f:	7f 00 00 
    6162:	4d 8d 6d f8          	lea    r13,[r13-0x8]
    6166:	4d 89 75 00          	mov    QWORD PTR [r13+0x0],r14
    616a:	e9 c3 2b 00 00       	jmp    0x8d32
    616f:	41 8b 75 40          	mov    esi,DWORD PTR [r13+0x40]
    6173:	45 31 c0             	xor    r8d,r8d
    6176:	49 89 da             	mov    r10,rbx
    6179:	41 89 45 44          	mov    DWORD PTR [r13+0x44],eax
    617d:	41 b9 ff ff ff ff    	mov    r9d,0xffffffff
    6183:	31 d2                	xor    edx,edx
    6185:	4c 8b 75 a0          	mov    r14,QWORD PTR [rbp-0x60]
    6189:	4c 89 f7             	mov    rdi,r14
    618c:	b8 ca 00 00 00       	mov    eax,0xca
    6191:	49 be 7e 4c e5 f7 ff 	movabs r14,0x7ffff7e54c7e
    6198:	7f 00 00 
    619b:	e9 8a 2c 00 00       	jmp    0x8e2a
    61a0:	49 be 80 4c e5 f7 ff 	movabs r14,0x7ffff7e54c80
    61a7:	7f 00 00 
    61aa:	49 ff c3             	inc    r11
    61ad:	49 f7 c3 00 00 00 01 	test   r11,0x1000000
    61b4:	0f 85 8b 2c 00 00    	jne    0x8e45
    61ba:	48 3d 00 f0 ff ff    	cmp    rax,0xfffffffffffff000
    61c0:	0f 87 8e 05 00 00    	ja     0x6754
    61c6:	41 8b 7d 44          	mov    edi,DWORD PTR [r13+0x44]
    61ca:	49 be 95 4c e5 f7 ff 	movabs r14,0x7ffff7e54c95
    61d1:	7f 00 00 
    61d4:	4d 8d 6d f8          	lea    r13,[r13-0x8]
    61d8:	4d 89 75 00          	mov    QWORD PTR [r13+0x0],r14
    61dc:	e9 81 2a 00 00       	jmp    0x8c62
    61e1:	31 f6                	xor    esi,esi
    61e3:	4c 8b 75 a8          	mov    r14,QWORD PTR [rbp-0x58]
    61e7:	4c 89 f7             	mov    rdi,r14
    61ea:	49 bf 9f 4c e5 f7 ff 	movabs r15,0x7ffff7e54c9f
    61f1:	7f 00 00 
    61f4:	4d 8d 6d f8          	lea    r13,[r13-0x8]
    61f8:	4d 89 7d 00          	mov    QWORD PTR [r13+0x0],r15
    61fc:	4c 89 75 a8          	mov    QWORD PTR [rbp-0x58],r14
    6200:	e9 a7 29 00 00       	jmp    0x8bac
    6205:	49 be 9f 4c e5 f7 ff 	movabs r14,0x7ffff7e54c9f
    620c:	7f 00 00 
    620f:	49 ff c3             	inc    r11
    6212:	49 f7 c3 00 00 00 01 	test   r11,0x1000000
    6219:	0f 85 26 2c 00 00    	jne    0x8e45
    621f:	49 8b 7d 38          	mov    rdi,QWORD PTR [r13+0x38]
    6223:	b8 fe ff ff ff       	mov    eax,0xfffffffe
    6228:	f0 0f c1 07          	lock xadd DWORD PTR [rdi],eax
    622c:	83 f8 03             	cmp    eax,0x3
    622f:	0f 84 a3 03 00 00    	je     0x65d8
    6235:	4c 8b 75 a0          	mov    r14,QWORD PTR [rbp-0x60]
    6239:	41 8b 06             	mov    eax,DWORD PTR [r14]
    623c:	4c 89 75 a0          	mov    QWORD PTR [rbp-0x60],r14
    6240:	49 be ba 4c e5 f7 ff 	movabs r14,0x7ffff7e54cba
    6247:	7f 00 00 
    624a:	49 ff c3             	inc    r11
    624d:	49 f7 c3 00 00 00 01 	test   r11,0x1000000
    6254:	0f 85 eb 2b 00 00    	jne    0x8e45
    625a:	a8 01                	test   al,0x1
    625c:	0f 84 35 fc ff ff    	je     0x5e97
    6262:	49 be c2 4c e5 f7 ff 	movabs r14,0x7ffff7e54cc2
    6269:	7f 00 00 
    626c:	49 ff c3             	inc    r11
    626f:	49 f7 c3 00 00 00 01 	test   r11,0x1000000
    6276:	0f 85 c9 2b 00 00    	jne    0x8e45
    627c:	e9 c5 fc ff ff       	jmp    0x5f46
    6281:	41 8b 75 1c          	mov    esi,DWORD PTR [r13+0x1c]
    6285:	45 31 d2             	xor    r10d,r10d
    6288:	ba ff ff ff 7f       	mov    edx,0x7fffffff
    628d:	4c 8b 75 b0          	mov    r14,QWORD PTR [rbp-0x50]
    6291:	4c 89 f7             	mov    rdi,r14
    6294:	b8 ca 00 00 00       	mov    eax,0xca
    6299:	49 be e4 4c e5 f7 ff 	movabs r14,0x7ffff7e54ce4
    62a0:	7f 00 00 
    62a3:	e9 82 2b 00 00       	jmp    0x8e2a
    62a8:	49 be e6 4c e5 f7 ff 	movabs r14,0x7ffff7e54ce6
    62af:	7f 00 00 
    62b2:	49 ff c3             	inc    r11
    62b5:	49 f7 c3 00 00 00 01 	test   r11,0x1000000
    62bc:	0f 85 83 2b 00 00    	jne    0x8e45
    62c2:	48 3d 00 f0 ff ff    	cmp    rax,0xfffffffffffff000
    62c8:	0f 86 b0 fc ff ff    	jbe    0x5f7e
    62ce:	49 be f2 4c e5 f7 ff 	movabs r14,0x7ffff7e54cf2
    62d5:	7f 00 00 
    62d8:	49 ff c3             	inc    r11
    62db:	49 f7 c3 00 00 00 01 	test   r11,0x1000000
    62e2:	0f 85 5d 2b 00 00    	jne    0x8e45
    62e8:	83 c0 16             	add    eax,0x16
    62eb:	83 e0 f7             	and    eax,0xfffffff7
    62ee:	0f 84 8a fc ff ff    	je     0x5f7e
    62f4:	49 be 05 4d e5 f7 ff 	movabs r14,0x7ffff7e54d05
    62fb:	7f 00 00 
    62fe:	49 8d be fb 72 00 00 	lea    rdi,[r14+0x72fb]
    6305:	49 be 0a 4d e5 f7 ff 	movabs r14,0x7ffff7e54d0a
    630c:	7f 00 00 
    630f:	4d 8d 6d f8          	lea    r13,[r13-0x8]
    6313:	4d 89 75 00          	mov    QWORD PTR [r13+0x0],r14
    6317:	e9 60 29 00 00       	jmp    0x8c7c
    631c:	90                   	nop
    631d:	4c 8b 75 a0          	mov    r14,QWORD PTR [rbp-0x60]
    6321:	41 8b 06             	mov    eax,DWORD PTR [r14]
    6324:	4c 89 75 a0          	mov    QWORD PTR [rbp-0x60],r14
    6328:	49 be 14 4d e5 f7 ff 	movabs r14,0x7ffff7e54d14
    632f:	7f 00 00 
    6332:	49 ff c3             	inc    r11
    6335:	49 f7 c3 00 00 00 01 	test   r11,0x1000000
    633c:	0f 85 03 2b 00 00    	jne    0x8e45
    6342:	48 8b 31             	mov    rsi,QWORD PTR [rcx]
    6345:	48 39 f2             	cmp    rdx,rsi
    6348:	0f 85 f8 fb ff ff    	jne    0x5f46
    634e:	49 be 20 4d e5 f7 ff 	movabs r14,0x7ffff7e54d20
    6355:	7f 00 00 
    6358:	49 ff c3             	inc    r11
    635b:	49 f7 c3 00 00 00 01 	test   r11,0x1000000
    6362:	0f 85 dd 2a 00 00    	jne    0x8e45
    6368:	a8 01                	test   al,0x1
    636a:	75 2c                	jne    0x6398
    636c:	49 be 24 4d e5 f7 ff 	movabs r14,0x7ffff7e54d24
    6373:	7f 00 00 
    6376:	49 ff c3             	inc    r11
    6379:	49 f7 c3 00 00 00 01 	test   r11,0x1000000
    6380:	0f 85 bf 2a 00 00    	jne    0x8e45
    6386:	8d 70 02             	lea    esi,[rax+0x2]
    6389:	4c 8b 75 a0          	mov    r14,QWORD PTR [rbp-0x60]
    638d:	f0 41 0f b1 36       	lock cmpxchg DWORD PTR [r14],esi
    6392:	4c 89 75 a0          	mov    QWORD PTR [rbp-0x60],r14
    6396:	75 90                	jne    0x6328
    6398:	41 8b 75 1c          	mov    esi,DWORD PTR [r13+0x1c]
    639c:	45 31 d2             	xor    r10d,r10d
    639f:	ba 01 00 00 00       	mov    edx,0x1
    63a4:	4c 8b 75 a0          	mov    r14,QWORD PTR [rbp-0x60]
    63a8:	4c 89 f7             	mov    rdi,r14
    63ab:	b8 ca 00 00 00       	mov    eax,0xca
    63b0:	49 be 43 4d e5 f7 ff 	movabs r14,0x7ffff7e54d43
    63b7:	7f 00 00 
    63ba:	e9 6b 2a 00 00       	jmp    0x8e2a
    63bf:	49 be 45 4d e5 f7 ff 	movabs r14,0x7ffff7e54d45
    63c6:	7f 00 00 
    63c9:	49 ff c3             	inc    r11
    63cc:	49 f7 c3 00 00 00 01 	test   r11,0x1000000
    63d3:	0f 85 6c 2a 00 00    	jne    0x8e45
    63d9:	48 3d 00 f0 ff ff    	cmp    rax,0xfffffffffffff000
    63df:	0f 87 2a 03 00 00    	ja     0x670f
    63e5:	4c 89 e7             	mov    rdi,r12
    63e8:	49 be 59 4d e5 f7 ff 	movabs r14,0x7ffff7e54d59
    63ef:	7f 00 00 
    63f2:	4d 8d 6d f8          	lea    r13,[r13-0x8]
    63f6:	4d 89 75 00          	mov    QWORD PTR [r13+0x0],r14
    63fa:	e9 76 0d 00 00       	jmp    0x7175
    63ff:	49 be 59 4d e5 f7 ff 	movabs r14,0x7ffff7e54d59
    6406:	7f 00 00 
    6409:	49 ff c3             	inc    r11
    640c:	49 f7 c3 00 00 00 01 	test   r11,0x1000000
    6413:	0f 85 2c 2a 00 00    	jne    0x8e45
    6419:	e9 28 fb ff ff       	jmp    0x5f46
    641e:	49 be 5e 4d e5 f7 ff 	movabs r14,0x7ffff7e54d5e
    6425:	7f 00 00 
    6428:	49 ff c3             	inc    r11
    642b:	49 f7 c3 00 00 00 01 	test   r11,0x1000000
    6432:	0f 85 0d 2a 00 00    	jne    0x8e45
    6438:	49 8b 5d 38          	mov    rbx,QWORD PTR [r13+0x38]
    643c:	b8 fe ff ff ff       	mov    eax,0xfffffffe
    6441:	f0 0f c1 03          	lock xadd DWORD PTR [rbx],eax
    6445:	83 f8 03             	cmp    eax,0x3
    6448:	0f 85 f8 fa ff ff    	jne    0x5f46
    644e:	49 8b 45 38          	mov    rax,QWORD PTR [r13+0x38]
    6452:	f0 83 20 fe          	lock and DWORD PTR [rax],0xfffffffe
    6456:	45 31 d2             	xor    r10d,r10d
    6459:	ba ff ff ff 7f       	mov    edx,0x7fffffff
    645e:	41 8b 75 1c          	mov    esi,DWORD PTR [r13+0x1c]
    6462:	48 89 c7             	mov    rdi,rax
    6465:	b8 ca 00 00 00       	mov    eax,0xca
    646a:	49 be 92 4d e5 f7 ff 	movabs r14,0x7ffff7e54d92
    6471:	7f 00 00 
    6474:	e9 b1 29 00 00       	jmp    0x8e2a
    6479:	49 be 94 4d e5 f7 ff 	movabs r14,0x7ffff7e54d94
    6480:	7f 00 00 
    6483:	49 ff c3             	inc    r11
    6486:	49 f7 c3 00 00 00 01 	test   r11,0x1000000
    648d:	0f 85 b2 29 00 00    	jne    0x8e45
    6493:	48 3d 00 f0 ff ff    	cmp    rax,0xfffffffffffff000
    6499:	0f 86 a7 fa ff ff    	jbe    0x5f46
    649f:	49 be a0 4d e5 f7 ff 	movabs r14,0x7ffff7e54da0
    64a6:	7f 00 00 
    64a9:	49 ff c3             	inc    r11
    64ac:	49 f7 c3 00 00 00 01 	test   r11,0x1000000
    64b3:	0f 85 8c 29 00 00    	jne    0x8e45
    64b9:	83 c0 16             	add    eax,0x16
    64bc:	83 e0 f7             	and    eax,0xfffffff7
    64bf:	0f 85 2f fe ff ff    	jne    0x62f4
    64c5:	49 be ac 4d e5 f7 ff 	movabs r14,0x7ffff7e54dac
    64cc:	7f 00 00 
    64cf:	49 ff c3             	inc    r11
    64d2:	49 f7 c3 00 00 00 01 	test   r11,0x1000000
    64d9:	0f 85 66 29 00 00    	jne    0x8e45
    64df:	e9 62 fa ff ff       	jmp    0x5f46
    64e4:	41 8b 4d 08          	mov    ecx,DWORD PTR [r13+0x8]
    64e8:	41 8b 55 0c          	mov    edx,DWORD PTR [r13+0xc]
    64ec:	4c 89 e7             	mov    rdi,r12
    64ef:	49 8b 75 00          	mov    rsi,QWORD PTR [r13+0x0]
    64f3:	49 be cc 4d e5 f7 ff 	movabs r14,0x7ffff7e54dcc
    64fa:	7f 00 00 
    64fd:	4d 8d 6d f8          	lea    r13,[r13-0x8]
    6501:	4d 89 75 00          	mov    QWORD PTR [r13+0x0],r14
    6505:	e9 c4 28 00 00       	jmp    0x8dce
    650a:	49 be cc 4d e5 f7 ff 	movabs r14,0x7ffff7e54dcc
    6511:	7f 00 00 
    6514:	49 ff c3             	inc    r11
    6517:	49 f7 c3 00 00 00 01 	test   r11,0x1000000
    651e:	0f 85 21 29 00 00    	jne    0x8e45
    6524:	b8 f8 ff ff ff       	mov    eax,0xfffffff8
    6529:	4c 8b 75 b0          	mov    r14,QWORD PTR [rbp-0x50]
    652d:	f0 41 0f c1 06       	lock xadd DWORD PTR [r14],eax
    6532:	45 8b 45 18          	mov    r8d,DWORD PTR [r13+0x18]
    6536:	c1 e8 02             	shr    eax,0x2
    6539:	83 f8 03             	cmp    eax,0x3
    653c:	4c 89 75 b0          	mov    QWORD PTR [rbp-0x50],r14
    6540:	0f 85 86 fa ff ff    	jne    0x5fcc
    6546:	41 8b 75 1c          	mov    esi,DWORD PTR [r13+0x1c]
    654a:	45 31 d2             	xor    r10d,r10d
    654d:	ba ff ff ff 7f       	mov    edx,0x7fffffff
    6552:	4c 8b 75 b0          	mov    r14,QWORD PTR [rbp-0x50]
    6556:	4c 89 f7             	mov    rdi,r14
    6559:	b8 ca 00 00 00       	mov    eax,0xca
    655e:	49 be fb 4d e5 f7 ff 	movabs r14,0x7ffff7e54dfb
    6565:	7f 00 00 
    6568:	e9 bd 28 00 00       	jmp    0x8e2a
    656d:	49 be fd 4d e5 f7 ff 	movabs r14,0x7ffff7e54dfd
    6574:	7f 00 00 
    6577:	49 ff c3             	inc    r11
    657a:	49 f7 c3 00 00 00 01 	test   r11,0x1000000
    6581:	0f 85 be 28 00 00    	jne    0x8e45
    6587:	48 3d 00 f0 ff ff    	cmp    rax,0xfffffffffffff000
    658d:	0f 86 39 fa ff ff    	jbe    0x5fcc
    6593:	49 be 09 4e e5 f7 ff 	movabs r14,0x7ffff7e54e09
    659a:	7f 00 00 
    659d:	49 ff c3             	inc    r11
    65a0:	49 f7 c3 00 00 00 01 	test   r11,0x1000000
    65a7:	0f 85 98 28 00 00    	jne    0x8e45
    65ad:	83 c0 16             	add    eax,0x16
    65b0:	83 e0 f7             	and    eax,0xfffffff7
    65b3:	0f 85 3b fd ff ff    	jne    0x62f4
    65b9:	49 be 15 4e e5 f7 ff 	movabs r14,0x7ffff7e54e15
    65c0:	7f 00 00 
    65c3:	49 ff c3             	inc    r11
    65c6:	49 f7 c3 00 00 00 01 	test   r11,0x1000000
    65cd:	0f 85 72 28 00 00    	jne    0x8e45
    65d3:	e9 f4 f9 ff ff       	jmp    0x5fcc
    65d8:	49 8b 45 38          	mov    rax,QWORD PTR [r13+0x38]
    65dc:	f0 83 20 fe          	lock and DWORD PTR [rax],0xfffffffe
    65e0:	45 31 d2             	xor    r10d,r10d
    65e3:	ba ff ff ff 7f       	mov    edx,0x7fffffff
    65e8:	41 8b 75 1c          	mov    esi,DWORD PTR [r13+0x1c]
    65ec:	48 89 c7             	mov    rdi,rax
    65ef:	b8 ca 00 00 00       	mov    eax,0xca
    65f4:	49 be 3d 4e e5 f7 ff 	movabs r14,0x7ffff7e54e3d
    65fb:	7f 00 00 
    65fe:	e9 27 28 00 00       	jmp    0x8e2a
    6603:	49 be 3f 4e e5 f7 ff 	movabs r14,0x7ffff7e54e3f
    660a:	7f 00 00 
    660d:	49 ff c3             	inc    r11
    6610:	49 f7 c3 00 00 00 01 	test   r11,0x1000000
    6617:	0f 85 28 28 00 00    	jne    0x8e45
    661d:	48 3d 00 f0 ff ff    	cmp    rax,0xfffffffffffff000
    6623:	0f 86 0c fc ff ff    	jbe    0x6235
    6629:	49 be 4b 4e e5 f7 ff 	movabs r14,0x7ffff7e54e4b
    6630:	7f 00 00 
    6633:	49 ff c3             	inc    r11
    6636:	49 f7 c3 00 00 00 01 	test   r11,0x1000000
    663d:	0f 85 02 28 00 00    	jne    0x8e45
    6643:	83 c0 16             	add    eax,0x16
    6646:	83 e0 f7             	and    eax,0xfffffff7
    6649:	0f 85 a5 fc ff ff    	jne    0x62f4
    664f:	49 be 57 4e e5 f7 ff 	movabs r14,0x7ffff7e54e57
    6656:	7f 00 00 
    6659:	49 ff c3             	inc    r11
    665c:	49 f7 c3 00 00 00 01 	test   r11,0x1000000
    6663:	0f 85 dc 27 00 00    	jne    0x8e45
    6669:	e9 c7 fb ff ff       	jmp    0x6235
    666e:	31 f6                	xor    esi,esi
    6670:	4c 8b 75 a8          	mov    r14,QWORD PTR [rbp-0x58]
    6674:	4c 89 f7             	mov    rdi,r14
    6677:	49 bf 6a 4e e5 f7 ff 	movabs r15,0x7ffff7e54e6a
    667e:	7f 00 00 
    6681:	4d 8d 6d f8          	lea    r13,[r13-0x8]
    6685:	4d 89 7d 00          	mov    QWORD PTR [r13+0x0],r15
    6689:	4c 89 75 a8          	mov    QWORD PTR [rbp-0x58],r14
    668d:	e9 1a 25 00 00       	jmp    0x8bac
    6692:	49 be 6a 4e e5 f7 ff 	movabs r14,0x7ffff7e54e6a
    6699:	7f 00 00 
    669c:	49 ff c3             	inc    r11
    669f:	49 f7 c3 00 00 00 01 	test   r11,0x1000000
    66a6:	0f 85 99 27 00 00    	jne    0x8e45
    66ac:	49 8b 5d 38          	mov    rbx,QWORD PTR [r13+0x38]
    66b0:	b8 fe ff ff ff       	mov    eax,0xfffffffe
    66b5:	f0 0f c1 03          	lock xadd DWORD PTR [rbx],eax
    66b9:	83 f8 03             	cmp    eax,0x3
    66bc:	0f 84 6e 01 00 00    	je     0x6830
    66c2:	41 8b 4d 08          	mov    ecx,DWORD PTR [r13+0x8]
    66c6:	41 8b 55 0c          	mov    edx,DWORD PTR [r13+0xc]
    66ca:	4c 89 e7             	mov    rdi,r12
    66cd:	49 8b 75 00          	mov    rsi,QWORD PTR [r13+0x0]
    66d1:	49 be 91 4e e5 f7 ff 	movabs r14,0x7ffff7e54e91
    66d8:	7f 00 00 
    66db:	4d 8d 6d f8          	lea    r13,[r13-0x8]
    66df:	4d 89 75 00          	mov    QWORD PTR [r13+0x0],r14
    66e3:	e9 e6 26 00 00       	jmp    0x8dce
    66e8:	49 be 91 4e e5 f7 ff 	movabs r14,0x7ffff7e54e91
    66ef:	7f 00 00 
    66f2:	49 ff c3             	inc    r11
    66f5:	49 f7 c3 00 00 00 01 	test   r11,0x1000000
    66fc:	0f 85 43 27 00 00    	jne    0x8e45
    6702:	41 c7 45 18 6e 00 00 	mov    DWORD PTR [r13+0x18],0x6e
    6709:	00 
    670a:	e9 37 f8 ff ff       	jmp    0x5f46
    670f:	49 be 9e 4e e5 f7 ff 	movabs r14,0x7ffff7e54e9e
    6716:	7f 00 00 
    6719:	49 ff c3             	inc    r11
    671c:	49 f7 c3 00 00 00 01 	test   r11,0x1000000
    6723:	0f 85 1c 27 00 00    	jne    0x8e45
    6729:	83 c0 16             	add    eax,0x16
    672c:	83 e0 f7             	and    eax,0xfffffff7
    672f:	0f 85 bf fb ff ff    	jne    0x62f4
    6735:	49 be aa 4e e5 f7 ff 	movabs r14,0x7ffff7e54eaa
    673c:	7f 00 00 
    673f:	49 ff c3             	inc    r11
    6742:	49 f7 c3 00 00 00 01 	test   r11,0x1000000
    6749:	0f 85 f6 26 00 00    	jne    0x8e45
    674f:	e9 91 fc ff ff       	jmp    0x63e5
    6754:	41 8b 7d 44          	mov    edi,DWORD PTR [r13+0x44]
    6758:	49 89 45 48          	mov    QWORD PTR [r13+0x48],rax
    675c:	49 be be 4e e5 f7 ff 	movabs r14,0x7ffff7e54ebe
    6763:	7f 00 00 
    6766:	4d 8d 6d f8          	lea    r13,[r13-0x8]
    676a:	4d 89 75 00          	mov    QWORD PTR [r13+0x0],r14
    676e:	e9 ef 24 00 00       	jmp    0x8c62
    6773:	49 be be 4e e5 f7 ff 	movabs r14,0x7ffff7e54ebe
    677a:	7f 00 00 
    677d:	49 ff c3             	inc    r11
    6780:	49 f7 c3 00 00 00 01 	test   r11,0x1000000
    6787:	0f 85 b8 26 00 00    	jne    0x8e45
    678d:	49 8b 45 48          	mov    rax,QWORD PTR [r13+0x48]
    6791:	83 f8 92             	cmp    eax,0xffffff92
    6794:	0f 84 d4 fe ff ff    	je     0x666e
    679a:	49 be c8 4e e5 f7 ff 	movabs r14,0x7ffff7e54ec8
    67a1:	7f 00 00 
    67a4:	49 ff c3             	inc    r11
    67a7:	49 f7 c3 00 00 00 01 	test   r11,0x1000000
    67ae:	0f 85 91 26 00 00    	jne    0x8e45
    67b4:	8d 48 0b             	lea    ecx,[rax+0xb]
    67b7:	83 f9 0b             	cmp    ecx,0xb
    67ba:	0f 87 34 fb ff ff    	ja     0x62f4
    67c0:	49 be d4 4e e5 f7 ff 	movabs r14,0x7ffff7e54ed4
    67c7:	7f 00 00 
    67ca:	49 ff c3             	inc    r11
    67cd:	49 f7 c3 00 00 00 01 	test   r11,0x1000000
    67d4:	0f 85 6b 26 00 00    	jne    0x8e45
    67da:	b8 01 00 00 00       	mov    eax,0x1
    67df:	48 d3 e0             	shl    rax,cl
    67e2:	a9 81 08 00 00       	test   eax,0x881
    67e7:	0f 84 07 fb ff ff    	je     0x62f4
    67ed:	31 f6                	xor    esi,esi
    67ef:	4c 8b 75 a8          	mov    r14,QWORD PTR [rbp-0x58]
    67f3:	4c 89 f7             	mov    rdi,r14
    67f6:	49 bf f1 4e e5 f7 ff 	movabs r15,0x7ffff7e54ef1
    67fd:	7f 00 00 
    6800:	4d 8d 6d f8          	lea    r13,[r13-0x8]
    6804:	4d 89 7d 00          	mov    QWORD PTR [r13+0x0],r15
    6808:	4c 89 75 a8          	mov    QWORD PTR [rbp-0x58],r14
    680c:	e9 9b 23 00 00       	jmp    0x8bac
    6811:	49 be f1 4e e5 f7 ff 	movabs r14,0x7ffff7e54ef1
    6818:	7f 00 00 
    681b:	49 ff c3             	inc    r11
    681e:	49 f7 c3 00 00 00 01 	test   r11,0x1000000
    6825:	0f 85 1a 26 00 00    	jne    0x8e45
    682b:	e9 d5 f9 ff ff       	jmp    0x6205
    6830:	49 8b 45 38          	mov    rax,QWORD PTR [r13+0x38]
    6834:	f0 83 20 fe          	lock and DWORD PTR [rax],0xfffffffe
    6838:	45 31 d2             	xor    r10d,r10d
    683b:	ba ff ff ff 7f       	mov    edx,0x7fffffff
    6840:	41 8b 75 1c          	mov    esi,DWORD PTR [r13+0x1c]
    6844:	48 89 c7             	mov    rdi,rax
    6847:	b8 ca 00 00 00       	mov    eax,0xca
    684c:	49 be 13 4f e5 f7 ff 	movabs r14,0x7ffff7e54f13
    6853:	7f 00 00 
    6856:	e9 cf 25 00 00       	jmp    0x8e2a
    685b:	49 be 15 4f e5 f7 ff 	movabs r14,0x7ffff7e54f15
    6862:	7f 00 00 
    6865:	49 ff c3             	inc    r11
    6868:	49 f7 c3 00 00 00 01 	test   r11,0x1000000
    686f:	0f 85 d0 25 00 00    	jne    0x8e45
    6875:	48 3d 00 f0 ff ff    	cmp    rax,0xfffffffffffff000
    687b:	0f 86 41 fe ff ff    	jbe    0x66c2
    6881:	49 be 21 4f e5 f7 ff 	movabs r14,0x7ffff7e54f21
    6888:	7f 00 00 
    688b:	49 ff c3             	inc    r11
    688e:	49 f7 c3 00 00 00 01 	test   r11,0x1000000
    6895:	0f 85 aa 25 00 00    	jne    0x8e45
    689b:	83 c0 16             	add    eax,0x16
    689e:	83 e0 f7             	and    eax,0xfffffff7
    68a1:	0f 85 4d fa ff ff    	jne    0x62f4
    68a7:	49 be 2d 4f e5 f7 ff 	movabs r14,0x7ffff7e54f2d
    68ae:	7f 00 00 
    68b1:	49 ff c3             	inc    r11
    68b4:	49 f7 c3 00 00 00 01 	test   r11,0x1000000
    68bb:	0f 85 84 25 00 00    	jne    0x8e45
    68c1:	e9 fc fd ff ff       	jmp    0x66c2
    68c6:	49 be 37 4f e5 f7 ff 	movabs r14,0x7ffff7e54f37
    68cd:	7f 00 00 
    68d0:	4d 8d 6d f8          	lea    r13,[r13-0x8]
    68d4:	4d 89 75 00          	mov    QWORD PTR [r13+0x0],r14
    68d8:	e9 6f 24 00 00       	jmp    0x8d4c
    68dd:	49 be 37 4f e5 f7 ff 	movabs r14,0x7ffff7e54f37
    68e4:	7f 00 00 
    68e7:	49 ff c3             	inc    r11
    68ea:	49 f7 c3 00 00 00 01 	test   r11,0x1000000
    68f1:	0f 85 4e 25 00 00    	jne    0x8e45
    68f7:	90                   	nop
    68f8:	90                   	nop
    68f9:	4d 8d 6d f8          	lea    r13,[r13-0x8]
    68fd:	4c 8b 75 b0          	mov    r14,QWORD PTR [rbp-0x50]
    6901:	4d 89 75 00          	mov    QWORD PTR [r13+0x0],r14
    6905:	4d 8d 6d f8          	lea    r13,[r13-0x8]
    6909:	4c 8b 7d a8          	mov    r15,QWORD PTR [rbp-0x58]
    690d:	4d 89 7d 00          	mov    QWORD PTR [r13+0x0],r15
    6911:	4d 8d 6d f8          	lea    r13,[r13-0x8]
    6915:	4c 89 75 b0          	mov    QWORD PTR [rbp-0x50],r14
    6919:	4c 8b 75 a0          	mov    r14,QWORD PTR [rbp-0x60]
    691d:	4d 89 75 00          	mov    QWORD PTR [r13+0x0],r14
    6921:	4d 8d 6d f8          	lea    r13,[r13-0x8]
    6925:	4c 89 75 a0          	mov    QWORD PTR [rbp-0x60],r14
    6929:	4c 8b 75 98          	mov    r14,QWORD PTR [rbp-0x68]
    692d:	4d 89 75 00          	mov    QWORD PTR [r13+0x0],r14
    6931:	4d 8d 6d f8          	lea    r13,[r13-0x8]
    6935:	4d 89 65 00          	mov    QWORD PTR [r13+0x0],r12
    6939:	4d 8d 6d f8          	lea    r13,[r13-0x8]
    693d:	49 89 5d 00          	mov    QWORD PTR [r13+0x0],rbx
    6941:	49 83 ed 38          	sub    r13,0x38
    6945:	90                   	nop
    6946:	44 8b 67 24          	mov    r12d,DWORD PTR [rdi+0x24]
    694a:	44 89 e0             	mov    eax,r12d
    694d:	c1 e8 03             	shr    eax,0x3
    6950:	4c 89 7d a8          	mov    QWORD PTR [rbp-0x58],r15
    6954:	4c 89 75 98          	mov    QWORD PTR [rbp-0x68],r14
    6958:	0f 84 e9 01 00 00    	je     0x6b47
    695e:	49 be 61 4f e5 f7 ff 	movabs r14,0x7ffff7e54f61
    6965:	7f 00 00 
    6968:	49 ff c3             	inc    r11
    696b:	49 f7 c3 00 00 00 01 	test   r11,0x1000000
    6972:	0f 85 cd 24 00 00    	jne    0x8e45
    6978:	49 89 f8             	mov    r8,rdi
    697b:	41 83 e4 01          	and    r12d,0x1
    697f:	0f 85 25 02 00 00    	jne    0x6baa
    6985:	41 bc 81 00 00 00    	mov    r12d,0x81
    698b:	be 80 00 00 00       	mov    esi,0x80
    6990:	41 8b 40 20          	mov    eax,DWORD PTR [r8+0x20]
    6994:	4d 8d 48 20          	lea    r9,[r8+0x20]
    6998:	49 be 7f 4f e5 f7 ff 	movabs r14,0x7ffff7e54f7f
    699f:	7f 00 00 
    69a2:	49 ff c3             	inc    r11
    69a5:	49 f7 c3 00 00 00 01 	test   r11,0x1000000
    69ac:	0f 85 93 24 00 00    	jne    0x8e45
    69b2:	a8 03                	test   al,0x3
    69b4:	0f 85 60 06 00 00    	jne    0x701a
    69ba:	49 be 87 4f e5 f7 ff 	movabs r14,0x7ffff7e54f87
    69c1:	7f 00 00 
    69c4:	49 ff c3             	inc    r11
    69c7:	49 f7 c3 00 00 00 01 	test   r11,0x1000000
    69ce:	0f 85 71 24 00 00    	jne    0x8e45
    69d4:	89 c2                	mov    edx,eax
    69d6:	83 ca 01             	or     edx,0x1
    69d9:	f0 41 0f b1 11       	lock cmpxchg DWORD PTR [r9],edx
    69de:	75 b8                	jne    0x6998
    69e0:	49 be 93 4f e5 f7 ff 	movabs r14,0x7ffff7e54f93
    69e7:	7f 00 00 
    69ea:	49 ff c3             	inc    r11
    69ed:	49 f7 c3 00 00 00 01 	test   r11,0x1000000
    69f4:	0f 85 4b 24 00 00    	jne    0x8e45
    69fa:	49 8b 00             	mov    rax,QWORD PTR [r8]
    69fd:	4c 8b 75 b0          	mov    r14,QWORD PTR [rbp-0x50]
    6a01:	4d 8d 70 28          	lea    r14,[r8+0x28]
    6a05:	48 89 c3             	mov    rbx,rax
    6a08:	48 f7 d3             	not    rbx
    6a0b:	83 e3 01             	and    ebx,0x1
    6a0e:	48 8d 53 04          	lea    rdx,[rbx+0x4]
    6a12:	4c 8b 7d a0          	mov    r15,QWORD PTR [rbp-0x60]
    6a16:	41 89 df             	mov    r15d,ebx
    6a19:	41 8b 54 90 08       	mov    edx,DWORD PTR [r8+rdx*4+0x8]
    6a1e:	85 d2                	test   edx,edx
    6a20:	4c 89 7d a0          	mov    QWORD PTR [rbp-0x60],r15
    6a24:	4c 89 75 b0          	mov    QWORD PTR [rbp-0x50],r14
    6a28:	0f 85 ab 03 00 00    	jne    0x6dd9
    6a2e:	49 be b7 4f e5 f7 ff 	movabs r14,0x7ffff7e54fb7
    6a35:	7f 00 00 
    6a38:	49 ff c3             	inc    r11
    6a3b:	49 f7 c3 00 00 00 01 	test   r11,0x1000000
    6a42:	0f 85 fd 23 00 00    	jne    0x8e45
    6a48:	89 d9                	mov    ecx,ebx
    6a4a:	4c 8b 75 98          	mov    r14,QWORD PTR [rbp-0x68]
    6a4e:	45 8b 70 20          	mov    r14d,DWORD PTR [r8+0x20]
    6a52:	49 8b 50 08          	mov    rdx,QWORD PTR [r8+0x8]
    6a56:	48 d1 e8             	shr    rax,1
    6a59:	83 f1 01             	xor    ecx,0x1
    6a5c:	41 89 4d 1c          	mov    DWORD PTR [r13+0x1c],ecx
    6a60:	41 c1 ee 02          	shr    r14d,0x2
    6a64:	48 89 d7             	mov    rdi,rdx
    6a67:	49 89 4d 20          	mov    QWORD PTR [r13+0x20],rcx
    6a6b:	49 8d 0c 88          	lea    rcx,[r8+rcx*4]
    6a6f:	48 d1 ef             	shr    rdi,1
    6a72:	03 41 18             	add    eax,DWORD PTR [rcx+0x18]
    6a75:	49 89 7d 08          	mov    QWORD PTR [r13+0x8],rdi
    6a79:	44 29 f0             	sub    eax,r14d
    6a7c:	49 89 4d 10          	mov    QWORD PTR [r13+0x10],rcx
    6a80:	39 c7                	cmp    edi,eax
    6a82:	4c 89 75 98          	mov    QWORD PTR [rbp-0x68],r14
    6a86:	0f 85 3f 01 00 00    	jne    0x6bcb
    6a8c:	41 8b 40 20          	mov    eax,DWORD PTR [r8+0x20]
    6a90:	49 be f6 4f e5 f7 ff 	movabs r14,0x7ffff7e54ff6
    6a97:	7f 00 00 
    6a9a:	49 ff c3             	inc    r11
    6a9d:	49 f7 c3 00 00 00 01 	test   r11,0x1000000
    6aa4:	0f 85 9b 23 00 00    	jne    0x8e45
    6aaa:	89 c1                	mov    ecx,eax
    6aac:	89 c2                	mov    edx,eax
    6aae:	83 e1 fc             	and    ecx,0xfffffffc
    6ab1:	f0 41 0f b1 09       	lock cmpxchg DWORD PTR [r9],ecx
    6ab6:	75 d8                	jne    0x6a90
    6ab8:	49 be 04 50 e5 f7 ff 	movabs r14,0x7ffff7e55004
    6abf:	7f 00 00 
    6ac2:	49 ff c3             	inc    r11
    6ac5:	49 f7 c3 00 00 00 01 	test   r11,0x1000000
    6acc:	0f 85 73 23 00 00    	jne    0x8e45
    6ad2:	83 e2 03             	and    edx,0x3
    6ad5:	83 fa 02             	cmp    edx,0x2
    6ad8:	75 6d                	jne    0x6b47
    6ada:	31 db                	xor    ebx,ebx
    6adc:	90                   	nop
    6add:	45 31 d2             	xor    r10d,r10d
    6ae0:	ba 01 00 00 00       	mov    edx,0x1
    6ae5:	44 89 e6             	mov    esi,r12d
    6ae8:	4c 89 cf             	mov    rdi,r9
    6aeb:	b8 ca 00 00 00       	mov    eax,0xca
    6af0:	49 be 22 50 e5 f7 ff 	movabs r14,0x7ffff7e55022
    6af7:	7f 00 00 
    6afa:	e9 2b 23 00 00       	jmp    0x8e2a
    6aff:	49 be 24 50 e5 f7 ff 	movabs r14,0x7ffff7e55024
    6b06:	7f 00 00 
    6b09:	49 ff c3             	inc    r11
    6b0c:	49 f7 c3 00 00 00 01 	test   r11,0x1000000
    6b13:	0f 85 2c 23 00 00    	jne    0x8e45
    6b19:	48 3d 00 f0 ff ff    	cmp    rax,0xfffffffffffff000
    6b1f:	0f 87 30 04 00 00    	ja     0x6f55
    6b25:	49 be 30 50 e5 f7 ff 	movabs r14,0x7ffff7e55030
    6b2c:	7f 00 00 
    6b2f:	49 ff c3             	inc    r11
    6b32:	49 f7 c3 00 00 00 01 	test   r11,0x1000000
    6b39:	0f 85 06 23 00 00    	jne    0x8e45
    6b3f:	84 db                	test   bl,bl
    6b41:	0f 85 a4 04 00 00    	jne    0x6feb
    6b47:	49 83 c5 38          	add    r13,0x38
    6b4b:	31 c0                	xor    eax,eax
    6b4d:	49 8b 5d 00          	mov    rbx,QWORD PTR [r13+0x0]
    6b51:	4d 8d 6d 08          	lea    r13,[r13+0x8]
    6b55:	4d 8b 65 00          	mov    r12,QWORD PTR [r13+0x0]
    6b59:	4d 8d 6d 08          	lea    r13,[r13+0x8]
    6b5d:	4c 8b 75 98          	mov    r14,QWORD PTR [rbp-0x68]
    6b61:	4d 8b 75 00          	mov    r14,QWORD PTR [r13+0x0]
    6b65:	4d 8d 6d 08          	lea    r13,[r13+0x8]
    6b69:	4c 8b 7d a0          	mov    r15,QWORD PTR [rbp-0x60]
    6b6d:	4d 8b 7d 00          	mov    r15,QWORD PTR [r13+0x0]
    6b71:	4d 8d 6d 08          	lea    r13,[r13+0x8]
    6b75:	4c 89 75 98          	mov    QWORD PTR [rbp-0x68],r14
    6b79:	4c 8b 75 a8          	mov    r14,QWORD PTR [rbp-0x58]
    6b7d:	4d 8b 75 00          	mov    r14,QWORD PTR [r13+0x0]
    6b81:	4d 8d 6d 08          	lea    r13,[r13+0x8]
    6b85:	4c 89 75 a8          	mov    QWORD PTR [rbp-0x58],r14
    6b89:	4c 8b 75 b0          	mov    r14,QWORD PTR [rbp-0x50]
    6b8d:	4d 8b 75 00          	mov    r14,QWORD PTR [r13+0x0]
    6b91:	4d 8d 6d 08          	lea    r13,[r13+0x8]
    6b95:	4c 89 75 b0          	mov    QWORD PTR [rbp-0x50],r14
    6b99:	4d 8b 75 00          	mov    r14,QWORD PTR [r13+0x0]
    6b9d:	4d 8d 6d 08          	lea    r13,[r13+0x8]
    6ba1:	4c 89 7d a0          	mov    QWORD PTR [rbp-0x60],r15
    6ba5:	e9 bf 1f 00 00       	jmp    0x8b69
    6baa:	49 be 50 50 e5 f7 ff 	movabs r14,0x7ffff7e55050
    6bb1:	7f 00 00 
    6bb4:	49 ff c3             	inc    r11
    6bb7:	49 f7 c3 00 00 00 01 	test   r11,0x1000000
    6bbe:	0f 85 81 22 00 00    	jne    0x8e45
    6bc4:	31 f6                	xor    esi,esi
    6bc6:	e9 c5 fd ff ff       	jmp    0x6990
    6bcb:	4c 8b 75 b0          	mov    r14,QWORD PTR [rbp-0x50]
    6bcf:	4d 8d 70 28          	lea    r14,[r8+0x28]
    6bd3:	48 8d 04 9d 00 00 00 	lea    rax,[rbx*4+0x0]
    6bda:	00 
    6bdb:	49 8d 3c 06          	lea    rdi,[r14+rax*1]
    6bdf:	49 89 7d 28          	mov    QWORD PTR [r13+0x28],rdi
    6be3:	f0 83 0f 01          	lock or DWORD PTR [rdi],0x1
    6be7:	49 8d 7c 00 10       	lea    rdi,[r8+rax*1+0x10]
    6bec:	8b 07                	mov    eax,DWORD PTR [rdi]
    6bee:	4c 89 75 b0          	mov    QWORD PTR [rbp-0x50],r14
    6bf2:	49 be 80 50 e5 f7 ff 	movabs r14,0x7ffff7e55080
    6bf9:	7f 00 00 
    6bfc:	49 ff c3             	inc    r11
    6bff:	49 f7 c3 00 00 00 01 	test   r11,0x1000000
    6c06:	0f 85 39 22 00 00    	jne    0x8e45
    6c0c:	89 c2                	mov    edx,eax
    6c0e:	f0 0f b1 07          	lock cmpxchg DWORD PTR [rdi],eax
    6c12:	75 de                	jne    0x6bf2
    6c14:	49 be 88 50 e5 f7 ff 	movabs r14,0x7ffff7e55088
    6c1b:	7f 00 00 
    6c1e:	49 ff c3             	inc    r11
    6c21:	49 f7 c3 00 00 00 01 	test   r11,0x1000000
    6c28:	0f 85 17 22 00 00    	jne    0x8e45
    6c2e:	d1 ea                	shr    edx,1
    6c30:	4c 8b 75 a8          	mov    r14,QWORD PTR [rbp-0x58]
    6c34:	41 be ca 00 00 00    	mov    r14d,0xca
    6c3a:	4c 8b 7d a0          	mov    r15,QWORD PTR [rbp-0x60]
    6c3e:	41 bf 01 00 00 00    	mov    r15d,0x1
    6c44:	4c 89 7d a0          	mov    QWORD PTR [rbp-0x60],r15
    6c48:	4c 89 75 a8          	mov    QWORD PTR [rbp-0x58],r14
    6c4c:	0f 84 ad 00 00 00    	je     0x6cff
    6c52:	90                   	nop
    6c53:	8b 07                	mov    eax,DWORD PTR [rdi]
    6c55:	49 be a2 50 e5 f7 ff 	movabs r14,0x7ffff7e550a2
    6c5c:	7f 00 00 
    6c5f:	49 ff c3             	inc    r11
    6c62:	49 f7 c3 00 00 00 01 	test   r11,0x1000000
    6c69:	0f 85 d6 21 00 00    	jne    0x8e45
    6c6f:	89 c1                	mov    ecx,eax
    6c71:	89 c2                	mov    edx,eax
    6c73:	83 c9 01             	or     ecx,0x1
    6c76:	f0 0f b1 0f          	lock cmpxchg DWORD PTR [rdi],ecx
    6c7a:	75 d9                	jne    0x6c55
    6c7c:	49 be af 50 e5 f7 ff 	movabs r14,0x7ffff7e550af
    6c83:	7f 00 00 
    6c86:	49 ff c3             	inc    r11
    6c89:	49 f7 c3 00 00 00 01 	test   r11,0x1000000
    6c90:	0f 85 af 21 00 00    	jne    0x8e45
    6c96:	d1 ea                	shr    edx,1
    6c98:	74 41                	je     0x6cdb
    6c9a:	45 31 d2             	xor    r10d,r10d
    6c9d:	89 ca                	mov    edx,ecx
    6c9f:	4c 8b 75 a8          	mov    r14,QWORD PTR [rbp-0x58]
    6ca3:	44 89 f0             	mov    eax,r14d
    6ca6:	49 be bb 50 e5 f7 ff 	movabs r14,0x7ffff7e550bb
    6cad:	7f 00 00 
    6cb0:	e9 75 21 00 00       	jmp    0x8e2a
    6cb5:	49 be bd 50 e5 f7 ff 	movabs r14,0x7ffff7e550bd
    6cbc:	7f 00 00 
    6cbf:	49 ff c3             	inc    r11
    6cc2:	49 f7 c3 00 00 00 01 	test   r11,0x1000000
    6cc9:	0f 85 76 21 00 00    	jne    0x8e45
    6ccf:	48 3d 00 f0 ff ff    	cmp    rax,0xfffffffffffff000
    6cd5:	0f 87 0a 02 00 00    	ja     0x6ee5
    6cdb:	49 be c9 50 e5 f7 ff 	movabs r14,0x7ffff7e550c9
    6ce2:	7f 00 00 
    6ce5:	49 ff c3             	inc    r11
    6ce8:	49 f7 c3 00 00 00 01 	test   r11,0x1000000
    6cef:	0f 85 50 21 00 00    	jne    0x8e45
    6cf5:	8b 07                	mov    eax,DWORD PTR [rdi]
    6cf7:	d1 e8                	shr    eax,1
    6cf9:	0f 85 54 ff ff ff    	jne    0x6c53
    6cff:	48 83 fb 01          	cmp    rbx,0x1
    6d03:	19 d2                	sbb    edx,edx
    6d05:	49 8b 48 08          	mov    rcx,QWORD PTR [r8+0x8]
    6d09:	83 ca 01             	or     edx,0x1
    6d0c:	4c 8b 75 98          	mov    r14,QWORD PTR [rbp-0x68]
    6d10:	42 8d 04 72          	lea    eax,[rdx+r14*2]
    6d14:	48 01 c8             	add    rax,rcx
    6d17:	49 89 40 08          	mov    QWORD PTR [r8+0x8],rax
    6d1b:	49 8b 45 28          	mov    rax,QWORD PTR [r13+0x28]
    6d1f:	c7 00 00 00 00 00    	mov    DWORD PTR [rax],0x0
    6d25:	49 8b 00             	mov    rax,QWORD PTR [r8]
    6d28:	4c 89 75 98          	mov    QWORD PTR [rbp-0x68],r14
    6d2c:	49 be f5 50 e5 f7 ff 	movabs r14,0x7ffff7e550f5
    6d33:	7f 00 00 
    6d36:	49 ff c3             	inc    r11
    6d39:	49 f7 c3 00 00 00 01 	test   r11,0x1000000
    6d40:	0f 85 ff 20 00 00    	jne    0x8e45
    6d46:	48 89 c1             	mov    rcx,rax
    6d49:	48 89 c2             	mov    rdx,rax
    6d4c:	48 83 f1 01          	xor    rcx,0x1
    6d50:	f0 49 0f b1 08       	lock cmpxchg QWORD PTR [r8],rcx
    6d55:	75 d5                	jne    0x6d2c
    6d57:	49 be 06 51 e5 f7 ff 	movabs r14,0x7ffff7e55106
    6d5e:	7f 00 00 
    6d61:	49 ff c3             	inc    r11
    6d64:	49 f7 c3 00 00 00 01 	test   r11,0x1000000
    6d6b:	0f 85 d4 20 00 00    	jne    0x8e45
    6d71:	4c 8b 75 98          	mov    r14,QWORD PTR [rbp-0x68]
    6d75:	45 03 75 08          	add    r14d,DWORD PTR [r13+0x8]
    6d79:	48 d1 ea             	shr    rdx,1
    6d7c:	41 8b 40 20          	mov    eax,DWORD PTR [r8+0x20]
    6d80:	44 29 f2             	sub    edx,r14d
    6d83:	8d 0c 95 00 00 00 00 	lea    ecx,[rdx*4+0x0]
    6d8a:	83 e0 03             	and    eax,0x3
    6d8d:	09 c8                	or     eax,ecx
    6d8f:	89 c6                	mov    esi,eax
    6d91:	41 87 31             	xchg   DWORD PTR [r9],esi
    6d94:	31 f0                	xor    eax,esi
    6d96:	a8 03                	test   al,0x3
    6d98:	4c 89 75 98          	mov    QWORD PTR [rbp-0x68],r14
    6d9c:	0f 85 23 02 00 00    	jne    0x6fc5
    6da2:	49 be 30 51 e5 f7 ff 	movabs r14,0x7ffff7e55130
    6da9:	7f 00 00 
    6dac:	49 ff c3             	inc    r11
    6daf:	49 f7 c3 00 00 00 01 	test   r11,0x1000000
    6db6:	0f 85 89 20 00 00    	jne    0x8e45
    6dbc:	49 8b 45 10          	mov    rax,QWORD PTR [r13+0x10]
    6dc0:	01 50 18             	add    DWORD PTR [rax+0x18],edx
    6dc3:	0f 84 d1 01 00 00    	je     0x6f9a
    6dc9:	49 8b 5d 20          	mov    rbx,QWORD PTR [r13+0x20]
    6dcd:	4c 8b 75 a0          	mov    r14,QWORD PTR [rbp-0x60]
    6dd1:	45 8b 75 1c          	mov    r14d,DWORD PTR [r13+0x1c]
    6dd5:	4c 89 75 a0          	mov    QWORD PTR [rbp-0x60],r14
    6dd9:	4c 8b 75 b0          	mov    r14,QWORD PTR [rbp-0x50]
    6ddd:	49 8d 3c 9e          	lea    rdi,[r14+rbx*4]
    6de1:	f0 83 07 02          	lock add DWORD PTR [rdi],0x2
    6de5:	4c 8b 7d a0          	mov    r15,QWORD PTR [rbp-0x60]
    6de9:	44 89 f8             	mov    eax,r15d
    6dec:	41 83 6c 80 18 01    	sub    DWORD PTR [r8+rax*4+0x18],0x1
    6df2:	41 8b 40 20          	mov    eax,DWORD PTR [r8+0x20]
    6df6:	4c 89 7d a0          	mov    QWORD PTR [rbp-0x60],r15
    6dfa:	4c 89 75 b0          	mov    QWORD PTR [rbp-0x50],r14
    6dfe:	49 be 5d 51 e5 f7 ff 	movabs r14,0x7ffff7e5515d
    6e05:	7f 00 00 
    6e08:	49 ff c3             	inc    r11
    6e0b:	49 f7 c3 00 00 00 01 	test   r11,0x1000000
    6e12:	0f 85 2d 20 00 00    	jne    0x8e45
    6e18:	89 c1                	mov    ecx,eax
    6e1a:	89 c2                	mov    edx,eax
    6e1c:	83 e1 fc             	and    ecx,0xfffffffc
    6e1f:	f0 41 0f b1 09       	lock cmpxchg DWORD PTR [r9],ecx
    6e24:	75 d8                	jne    0x6dfe
    6e26:	49 be 6b 51 e5 f7 ff 	movabs r14,0x7ffff7e5516b
    6e2d:	7f 00 00 
    6e30:	49 ff c3             	inc    r11
    6e33:	49 f7 c3 00 00 00 01 	test   r11,0x1000000
    6e3a:	0f 85 05 20 00 00    	jne    0x8e45
    6e40:	83 e2 03             	and    edx,0x3
    6e43:	bb 01 00 00 00       	mov    ebx,0x1
    6e48:	83 fa 02             	cmp    edx,0x2
    6e4b:	0f 84 8c fc ff ff    	je     0x6add
    6e51:	45 31 d2             	xor    r10d,r10d
    6e54:	ba 01 00 00 00       	mov    edx,0x1
    6e59:	44 89 e6             	mov    esi,r12d
    6e5c:	b8 ca 00 00 00       	mov    eax,0xca
    6e61:	49 be 8b 51 e5 f7 ff 	movabs r14,0x7ffff7e5518b
    6e68:	7f 00 00 
    6e6b:	e9 ba 1f 00 00       	jmp    0x8e2a
    6e70:	49 be 8d 51 e5 f7 ff 	movabs r14,0x7ffff7e5518d
    6e77:	7f 00 00 
    6e7a:	49 ff c3             	inc    r11
    6e7d:	49 f7 c3 00 00 00 01 	test   r11,0x1000000
    6e84:	0f 85 bb 1f 00 00    	jne    0x8e45
    6e8a:	48 3d 00 f0 ff ff    	cmp    rax,0xfffffffffffff000
    6e90:	0f 86 b1 fc ff ff    	jbe    0x6b47
    6e96:	49 be 99 51 e5 f7 ff 	movabs r14,0x7ffff7e55199
    6e9d:	7f 00 00 
    6ea0:	49 ff c3             	inc    r11
    6ea3:	49 f7 c3 00 00 00 01 	test   r11,0x1000000
    6eaa:	0f 85 95 1f 00 00    	jne    0x8e45
    6eb0:	83 c0 16             	add    eax,0x16
    6eb3:	83 e0 f7             	and    eax,0xfffffff7
    6eb6:	0f 84 8b fc ff ff    	je     0x6b47
    6ebc:	49 be ac 51 e5 f7 ff 	movabs r14,0x7ffff7e551ac
    6ec3:	7f 00 00 
    6ec6:	49 8d be 54 6e 00 00 	lea    rdi,[r14+0x6e54]
    6ecd:	49 be b1 51 e5 f7 ff 	movabs r14,0x7ffff7e551b1
    6ed4:	7f 00 00 
    6ed7:	4d 8d 6d f8          	lea    r13,[r13-0x8]
    6edb:	4d 89 75 00          	mov    QWORD PTR [r13+0x0],r14
    6edf:	e9 98 1d 00 00       	jmp    0x8c7c
    6ee4:	90                   	nop
    6ee5:	49 be b8 51 e5 f7 ff 	movabs r14,0x7ffff7e551b8
    6eec:	7f 00 00 
    6eef:	49 ff c3             	inc    r11
    6ef2:	49 f7 c3 00 00 00 01 	test   r11,0x1000000
    6ef9:	0f 85 46 1f 00 00    	jne    0x8e45
    6eff:	8d 48 0b             	lea    ecx,[rax+0xb]
    6f02:	83 f9 0b             	cmp    ecx,0xb
    6f05:	77 b5                	ja     0x6ebc
    6f07:	49 be c0 51 e5 f7 ff 	movabs r14,0x7ffff7e551c0
    6f0e:	7f 00 00 
    6f11:	49 ff c3             	inc    r11
    6f14:	49 f7 c3 00 00 00 01 	test   r11,0x1000000
    6f1b:	0f 85 24 1f 00 00    	jne    0x8e45
    6f21:	4c 8b 75 a0          	mov    r14,QWORD PTR [rbp-0x60]
    6f25:	4c 89 f0             	mov    rax,r14
    6f28:	48 d3 e0             	shl    rax,cl
    6f2b:	a9 81 08 00 00       	test   eax,0x881
    6f30:	4c 89 75 a0          	mov    QWORD PTR [rbp-0x60],r14
    6f34:	74 86                	je     0x6ebc
    6f36:	49 be cd 51 e5 f7 ff 	movabs r14,0x7ffff7e551cd
    6f3d:	7f 00 00 
    6f40:	49 ff c3             	inc    r11
    6f43:	49 f7 c3 00 00 00 01 	test   r11,0x1000000
    6f4a:	0f 85 f5 1e 00 00    	jne    0x8e45
    6f50:	e9 86 fd ff ff       	jmp    0x6cdb
    6f55:	49 be d8 51 e5 f7 ff 	movabs r14,0x7ffff7e551d8
    6f5c:	7f 00 00 
    6f5f:	49 ff c3             	inc    r11
    6f62:	49 f7 c3 00 00 00 01 	test   r11,0x1000000
    6f69:	0f 85 d6 1e 00 00    	jne    0x8e45
    6f6f:	83 c0 16             	add    eax,0x16
    6f72:	83 e0 f7             	and    eax,0xfffffff7
    6f75:	0f 85 41 ff ff ff    	jne    0x6ebc
    6f7b:	49 be e0 51 e5 f7 ff 	movabs r14,0x7ffff7e551e0
    6f82:	7f 00 00 
    6f85:	49 ff c3             	inc    r11
    6f88:	49 f7 c3 00 00 00 01 	test   r11,0x1000000
    6f8f:	0f 85 b0 1e 00 00    	jne    0x8e45
    6f95:	e9 8b fb ff ff       	jmp    0x6b25
    6f9a:	49 be e8 51 e5 f7 ff 	movabs r14,0x7ffff7e551e8
    6fa1:	7f 00 00 
    6fa4:	49 ff c3             	inc    r11
    6fa7:	49 f7 c3 00 00 00 01 	test   r11,0x1000000
    6fae:	0f 85 91 1e 00 00    	jne    0x8e45
    6fb4:	4c 8b 75 a0          	mov    r14,QWORD PTR [rbp-0x60]
    6fb8:	45 8b 75 1c          	mov    r14d,DWORD PTR [r13+0x1c]
    6fbc:	4c 89 75 a0          	mov    QWORD PTR [rbp-0x60],r14
    6fc0:	e9 c7 fa ff ff       	jmp    0x6a8c
    6fc5:	49 be f8 51 e5 f7 ff 	movabs r14,0x7ffff7e551f8
    6fcc:	7f 00 00 
    6fcf:	49 ff c3             	inc    r11
    6fd2:	49 f7 c3 00 00 00 01 	test   r11,0x1000000
    6fd9:	0f 85 66 1e 00 00    	jne    0x8e45
    6fdf:	83 c9 02             	or     ecx,0x2
    6fe2:	41 89 48 20          	mov    DWORD PTR [r8+0x20],ecx
    6fe6:	e9 b7 fd ff ff       	jmp    0x6da2
    6feb:	49 be 08 52 e5 f7 ff 	movabs r14,0x7ffff7e55208
    6ff2:	7f 00 00 
    6ff5:	49 ff c3             	inc    r11
    6ff8:	49 f7 c3 00 00 00 01 	test   r11,0x1000000
    6fff:	0f 85 40 1e 00 00    	jne    0x8e45
    7005:	4c 8b 75 a0          	mov    r14,QWORD PTR [rbp-0x60]
    7009:	45 89 f6             	mov    r14d,r14d
    700c:	4b 8d 7c b0 28       	lea    rdi,[r8+r14*4+0x28]
    7011:	4c 89 75 a0          	mov    QWORD PTR [rbp-0x60],r14
    7015:	e9 37 fe ff ff       	jmp    0x6e51
    701a:	49 be 18 52 e5 f7 ff 	movabs r14,0x7ffff7e55218
    7021:	7f 00 00 
    7024:	49 ff c3             	inc    r11
    7027:	49 f7 c3 00 00 00 01 	test   r11,0x1000000
    702e:	0f 85 11 1e 00 00    	jne    0x8e45
    7034:	4c 8b 75 98          	mov    r14,QWORD PTR [rbp-0x68]
    7038:	41 be ca 00 00 00    	mov    r14d,0xca
    703e:	bb 01 00 00 00       	mov    ebx,0x1
    7043:	4c 89 75 98          	mov    QWORD PTR [rbp-0x68],r14
    7047:	eb 03                	jmp    0x704c
    7049:	41 8b 01             	mov    eax,DWORD PTR [r9]
    704c:	49 be 28 52 e5 f7 ff 	movabs r14,0x7ffff7e55228
    7053:	7f 00 00 
    7056:	49 ff c3             	inc    r11
    7059:	49 f7 c3 00 00 00 01 	test   r11,0x1000000
    7060:	0f 85 df 1d 00 00    	jne    0x8e45
    7066:	89 c2                	mov    edx,eax
    7068:	89 c1                	mov    ecx,eax
    706a:	83 e2 fc             	and    edx,0xfffffffc
    706d:	83 e1 03             	and    ecx,0x3
    7070:	83 ca 02             	or     edx,0x2
    7073:	83 f9 02             	cmp    ecx,0x2
    7076:	74 4b                	je     0x70c3
    7078:	49 be 3a 52 e5 f7 ff 	movabs r14,0x7ffff7e5523a
    707f:	7f 00 00 
    7082:	49 ff c3             	inc    r11
    7085:	49 f7 c3 00 00 00 01 	test   r11,0x1000000
    708c:	0f 85 b3 1d 00 00    	jne    0x8e45
    7092:	f0 41 0f b1 11       	lock cmpxchg DWORD PTR [r9],edx
    7097:	75 b3                	jne    0x704c
    7099:	49 be 41 52 e5 f7 ff 	movabs r14,0x7ffff7e55241
    70a0:	7f 00 00 
    70a3:	49 ff c3             	inc    r11
    70a6:	49 f7 c3 00 00 00 01 	test   r11,0x1000000
    70ad:	0f 85 92 1d 00 00    	jne    0x8e45
    70b3:	a8 03                	test   al,0x3
    70b5:	0f 84 25 f9 ff ff    	je     0x69e0
    70bb:	83 e0 fc             	and    eax,0xfffffffc
    70be:	83 c8 02             	or     eax,0x2
    70c1:	89 c2                	mov    edx,eax
    70c3:	45 31 d2             	xor    r10d,r10d
    70c6:	4c 89 cf             	mov    rdi,r9
    70c9:	4c 8b 75 98          	mov    r14,QWORD PTR [rbp-0x68]
    70cd:	44 89 f0             	mov    eax,r14d
    70d0:	49 be 5a 52 e5 f7 ff 	movabs r14,0x7ffff7e5525a
    70d7:	7f 00 00 
    70da:	e9 4b 1d 00 00       	jmp    0x8e2a
    70df:	49 be 5c 52 e5 f7 ff 	movabs r14,0x7ffff7e5525c
    70e6:	7f 00 00 
    70e9:	49 ff c3             	inc    r11
    70ec:	49 f7 c3 00 00 00 01 	test   r11,0x1000000
    70f3:	0f 85 4c 1d 00 00    	jne    0x8e45
    70f9:	48 3d 00 f0 ff ff    	cmp    rax,0xfffffffffffff000
    70ff:	0f 86 44 ff ff ff    	jbe    0x7049
    7105:	49 be 64 52 e5 f7 ff 	movabs r14,0x7ffff7e55264
    710c:	7f 00 00 
    710f:	49 ff c3             	inc    r11
    7112:	49 f7 c3 00 00 00 01 	test   r11,0x1000000
    7119:	0f 85 26 1d 00 00    	jne    0x8e45
    711f:	8d 48 0b             	lea    ecx,[rax+0xb]
    7122:	83 f9 0b             	cmp    ecx,0xb
    7125:	0f 87 91 fd ff ff    	ja     0x6ebc
    712b:	49 be 70 52 e5 f7 ff 	movabs r14,0x7ffff7e55270
    7132:	7f 00 00 
    7135:	49 ff c3             	inc    r11
    7138:	49 f7 c3 00 00 00 01 	test   r11,0x1000000
    713f:	0f 85 00 1d 00 00    	jne    0x8e45
    7145:	48 89 d8             	mov    rax,rbx
    7148:	48 d3 e0             	shl    rax,cl
    714b:	a9 81 08 00 00       	test   eax,0x881
    7150:	0f 84 66 fd ff ff    	je     0x6ebc
    7156:	49 be 81 52 e5 f7 ff 	movabs r14,0x7ffff7e55281
    715d:	7f 00 00 
    7160:	49 ff c3             	inc    r11
    7163:	49 f7 c3 00 00 00 01 	test   r11,0x1000000
    716a:	0f 85 d5 1c 00 00    	jne    0x8e45
    7170:	e9 d4 fe ff ff       	jmp    0x7049
    7175:	49 be 90 52 e5 f7 ff 	movabs r14,0x7ffff7e55290
    717c:	7f 00 00 
    717f:	49 ff c3             	inc    r11
    7182:	49 f7 c3 00 00 00 01 	test   r11,0x1000000
    7189:	0f 85 b6 1c 00 00    	jne    0x8e45
    718f:	90                   	nop
    7190:	4d 8d 6d f8          	lea    r13,[r13-0x8]
    7194:	4c 8b 75 b0          	mov    r14,QWORD PTR [rbp-0x50]
    7198:	4d 89 75 00          	mov    QWORD PTR [r13+0x0],r14
    719c:	4d 8d 6d f8          	lea    r13,[r13-0x8]
    71a0:	4c 8b 7d a8          	mov    r15,QWORD PTR [rbp-0x58]
    71a4:	4d 89 7d 00          	mov    QWORD PTR [r13+0x0],r15
    71a8:	4d 8d 6d f8          	lea    r13,[r13-0x8]
    71ac:	4c 89 75 b0          	mov    QWORD PTR [rbp-0x50],r14
    71b0:	4c 8b 75 a0          	mov    r14,QWORD PTR [rbp-0x60]
    71b4:	4d 89 75 00          	mov    QWORD PTR [r13+0x0],r14
    71b8:	4d 8d 6d f8          	lea    r13,[r13-0x8]
    71bc:	4c 89 75 a0          	mov    QWORD PTR [rbp-0x60],r14
    71c0:	4c 8b 75 98          	mov    r14,QWORD PTR [rbp-0x68]
    71c4:	4d 89 75 00          	mov    QWORD PTR [r13+0x0],r14
    71c8:	4d 8d 6d f8          	lea    r13,[r13-0x8]
    71cc:	4d 89 65 00          	mov    QWORD PTR [r13+0x0],r12
    71d0:	4d 8d 6d f8          	lea    r13,[r13-0x8]
    71d4:	49 89 5d 00          	mov    QWORD PTR [r13+0x0],rbx
    71d8:	49 83 ed 38          	sub    r13,0x38
    71dc:	90                   	nop
    71dd:	44 8b 67 24          	mov    r12d,DWORD PTR [rdi+0x24]
    71e1:	44 89 e0             	mov    eax,r12d
    71e4:	c1 e8 03             	shr    eax,0x3
    71e7:	4c 89 7d a8          	mov    QWORD PTR [rbp-0x58],r15
    71eb:	4c 89 75 98          	mov    QWORD PTR [rbp-0x68],r14
    71ef:	0f 84 58 04 00 00    	je     0x764d
    71f5:	49 be b1 52 e5 f7 ff 	movabs r14,0x7ffff7e552b1
    71fc:	7f 00 00 
    71ff:	49 ff c3             	inc    r11
    7202:	49 f7 c3 00 00 00 01 	test   r11,0x1000000
    7209:	0f 85 36 1c 00 00    	jne    0x8e45
    720f:	49 89 f8             	mov    r8,rdi
    7212:	41 83 e4 01          	and    r12d,0x1
    7216:	0f 85 94 04 00 00    	jne    0x76b0
    721c:	4c 8b 75 b0          	mov    r14,QWORD PTR [rbp-0x50]
    7220:	41 be 80 00 00 00    	mov    r14d,0x80
    7226:	41 bc 81 00 00 00    	mov    r12d,0x81
    722c:	4c 89 75 b0          	mov    QWORD PTR [rbp-0x50],r14
    7230:	41 8b 40 20          	mov    eax,DWORD PTR [r8+0x20]
    7234:	4d 8d 48 20          	lea    r9,[r8+0x20]
    7238:	49 be d0 52 e5 f7 ff 	movabs r14,0x7ffff7e552d0
    723f:	7f 00 00 
    7242:	49 ff c3             	inc    r11
    7245:	49 f7 c3 00 00 00 01 	test   r11,0x1000000
    724c:	0f 85 f3 1b 00 00    	jne    0x8e45
    7252:	a8 03                	test   al,0x3
    7254:	0f 85 1a 07 00 00    	jne    0x7974
    725a:	49 be d8 52 e5 f7 ff 	movabs r14,0x7ffff7e552d8
    7261:	7f 00 00 
    7264:	49 ff c3             	inc    r11
    7267:	49 f7 c3 00 00 00 01 	test   r11,0x1000000
    726e:	0f 85 d1 1b 00 00    	jne    0x8e45
    7274:	89 c2                	mov    edx,eax
    7276:	83 ca 01             	or     edx,0x1
    7279:	f0 41 0f b1 11       	lock cmpxchg DWORD PTR [r9],edx
    727e:	75 b8                	jne    0x7238
    7280:	49 be e4 52 e5 f7 ff 	movabs r14,0x7ffff7e552e4
    7287:	7f 00 00 
    728a:	49 ff c3             	inc    r11
    728d:	49 f7 c3 00 00 00 01 	test   r11,0x1000000
    7294:	0f 85 ab 1b 00 00    	jne    0x8e45
    729a:	4c 8b 75 a8          	mov    r14,QWORD PTR [rbp-0x58]
    729e:	4d 8b 30             	mov    r14,QWORD PTR [r8]
    72a1:	44 89 f3             	mov    ebx,r14d
    72a4:	4c 8b 7d 98          	mov    r15,QWORD PTR [rbp-0x68]
    72a8:	4d 89 f7             	mov    r15,r14
    72ab:	f7 d3                	not    ebx
    72ad:	49 d1 ef             	shr    r15,1
    72b0:	83 e3 01             	and    ebx,0x1
    72b3:	4c 89 75 a8          	mov    QWORD PTR [rbp-0x58],r14
    72b7:	4c 8b 75 a0          	mov    r14,QWORD PTR [rbp-0x60]
    72bb:	41 89 de             	mov    r14d,ebx
    72be:	49 c1 e6 02          	shl    r14,0x2
    72c2:	4b 8d 14 06          	lea    rdx,[r14+r8*1]
    72c6:	8b 42 18             	mov    eax,DWORD PTR [rdx+0x18]
    72c9:	85 c0                	test   eax,eax
    72cb:	4c 89 7d 98          	mov    QWORD PTR [rbp-0x68],r15
    72cf:	4c 89 75 a0          	mov    QWORD PTR [rbp-0x60],r14
    72d3:	74 5a                	je     0x732f
    72d5:	4c 8b 75 a0          	mov    r14,QWORD PTR [rbp-0x60]
    72d9:	4b 8d 7c 06 28       	lea    rdi,[r14+r8*1+0x28]
    72de:	01 c0                	add    eax,eax
    72e0:	f0 01 07             	lock add DWORD PTR [rdi],eax
    72e3:	45 31 d2             	xor    r10d,r10d
    72e6:	b8 ca 00 00 00       	mov    eax,0xca
    72eb:	c7 42 18 00 00 00 00 	mov    DWORD PTR [rdx+0x18],0x0
    72f2:	44 89 e6             	mov    esi,r12d
    72f5:	ba ff ff ff 7f       	mov    edx,0x7fffffff
    72fa:	49 be 27 53 e5 f7 ff 	movabs r14,0x7ffff7e55327
    7301:	7f 00 00 
    7304:	e9 21 1b 00 00       	jmp    0x8e2a
    7309:	49 be 29 53 e5 f7 ff 	movabs r14,0x7ffff7e55329
    7310:	7f 00 00 
    7313:	49 ff c3             	inc    r11
    7316:	49 f7 c3 00 00 00 01 	test   r11,0x1000000
    731d:	0f 85 22 1b 00 00    	jne    0x8e45
    7323:	48 3d 00 f0 ff ff    	cmp    rax,0xfffffffffffff000
    7329:	0f 87 64 05 00 00    	ja     0x7893
    732f:	49 be 35 53 e5 f7 ff 	movabs r14,0x7ffff7e55335
    7336:	7f 00 00 
    7339:	49 ff c3             	inc    r11
    733c:	49 f7 c3 00 00 00 01 	test   r11,0x1000000
    7343:	0f 85 fc 1a 00 00    	jne    0x8e45
    7349:	4c 8b 75 a8          	mov    r14,QWORD PTR [rbp-0x58]
    734d:	44 89 f1             	mov    ecx,r14d
    7350:	41 8b 40 20          	mov    eax,DWORD PTR [r8+0x20]
    7354:	83 e1 01             	and    ecx,0x1
    7357:	89 cf                	mov    edi,ecx
    7359:	c1 e8 02             	shr    eax,0x2
    735c:	48 c1 e7 02          	shl    rdi,0x2
    7360:	89 c6                	mov    esi,eax
    7362:	41 89 45 18          	mov    DWORD PTR [r13+0x18],eax
    7366:	49 8b 40 08          	mov    rax,QWORD PTR [r8+0x8]
    736a:	4d 8d 34 38          	lea    r14,[r8+rdi*1]
    736e:	41 89 4d 1c          	mov    DWORD PTR [r13+0x1c],ecx
    7372:	4c 8b 7d 98          	mov    r15,QWORD PTR [rbp-0x68]
    7376:	45 03 7e 18          	add    r15d,DWORD PTR [r14+0x18]
    737a:	48 d1 e8             	shr    rax,1
    737d:	49 89 7d 10          	mov    QWORD PTR [r13+0x10],rdi
    7381:	41 29 f7             	sub    r15d,esi
    7384:	49 89 45 08          	mov    QWORD PTR [r13+0x8],rax
    7388:	44 39 f8             	cmp    eax,r15d
    738b:	4c 89 7d 98          	mov    QWORD PTR [rbp-0x68],r15
    738f:	4c 89 75 a8          	mov    QWORD PTR [rbp-0x58],r14
    7393:	0f 84 45 03 00 00    	je     0x76de
    7399:	49 8d 40 28          	lea    rax,[r8+0x28]
    739d:	49 89 45 28          	mov    QWORD PTR [r13+0x28],rax
    73a1:	4c 8b 75 a0          	mov    r14,QWORD PTR [rbp-0x60]
    73a5:	4c 01 f0             	add    rax,r14
    73a8:	49 89 45 20          	mov    QWORD PTR [r13+0x20],rax
    73ac:	f0 83 08 01          	lock or DWORD PTR [rax],0x1
    73b0:	4b 8d 7c 06 10       	lea    rdi,[r14+r8*1+0x10]
    73b5:	8b 07                	mov    eax,DWORD PTR [rdi]
    73b7:	4c 89 75 a0          	mov    QWORD PTR [rbp-0x60],r14
    73bb:	49 be 93 53 e5 f7 ff 	movabs r14,0x7ffff7e55393
    73c2:	7f 00 00 
    73c5:	49 ff c3             	inc    r11
    73c8:	49 f7 c3 00 00 00 01 	test   r11,0x1000000
    73cf:	0f 85 70 1a 00 00    	jne    0x8e45
    73d5:	89 c2                	mov    edx,eax
    73d7:	f0 0f b1 07          	lock cmpxchg DWORD PTR [rdi],eax
    73db:	75 de                	jne    0x73bb
    73dd:	49 be 9b 53 e5 f7 ff 	movabs r14,0x7ffff7e5539b
    73e4:	7f 00 00 
    73e7:	49 ff c3             	inc    r11
    73ea:	49 f7 c3 00 00 00 01 	test   r11,0x1000000
    73f1:	0f 85 4e 1a 00 00    	jne    0x8e45
    73f7:	d1 ea                	shr    edx,1
    73f9:	4c 8b 75 98          	mov    r14,QWORD PTR [rbp-0x68]
    73fd:	41 be ca 00 00 00    	mov    r14d,0xca
    7403:	4c 8b 7d a0          	mov    r15,QWORD PTR [rbp-0x60]
    7407:	41 bf 01 00 00 00    	mov    r15d,0x1
    740d:	4c 89 7d a0          	mov    QWORD PTR [rbp-0x60],r15
    7411:	4c 89 75 98          	mov    QWORD PTR [rbp-0x68],r14
    7415:	0f 84 b4 00 00 00    	je     0x74cf
    741b:	90                   	nop
    741c:	8b 07                	mov    eax,DWORD PTR [rdi]
    741e:	49 be b2 53 e5 f7 ff 	movabs r14,0x7ffff7e553b2
    7425:	7f 00 00 
    7428:	49 ff c3             	inc    r11
    742b:	49 f7 c3 00 00 00 01 	test   r11,0x1000000
    7432:	0f 85 0d 1a 00 00    	jne    0x8e45
    7438:	89 c1                	mov    ecx,eax
    743a:	89 c2                	mov    edx,eax
    743c:	83 c9 01             	or     ecx,0x1
    743f:	f0 0f b1 0f          	lock cmpxchg DWORD PTR [rdi],ecx
    7443:	75 d9                	jne    0x741e
    7445:	49 be bf 53 e5 f7 ff 	movabs r14,0x7ffff7e553bf
    744c:	7f 00 00 
    744f:	49 ff c3             	inc    r11
    7452:	49 f7 c3 00 00 00 01 	test   r11,0x1000000
    7459:	0f 85 e6 19 00 00    	jne    0x8e45
    745f:	d1 ea                	shr    edx,1
    7461:	74 48                	je     0x74ab
    7463:	45 31 d2             	xor    r10d,r10d
    7466:	89 ca                	mov    edx,ecx
    7468:	4c 8b 75 b0          	mov    r14,QWORD PTR [rbp-0x50]
    746c:	44 89 f6             	mov    esi,r14d
    746f:	4c 8b 7d 98          	mov    r15,QWORD PTR [rbp-0x68]
    7473:	44 89 f8             	mov    eax,r15d
    7476:	49 be ce 53 e5 f7 ff 	movabs r14,0x7ffff7e553ce
    747d:	7f 00 00 
    7480:	e9 a5 19 00 00       	jmp    0x8e2a
    7485:	49 be d0 53 e5 f7 ff 	movabs r14,0x7ffff7e553d0
    748c:	7f 00 00 
    748f:	49 ff c3             	inc    r11
    7492:	49 f7 c3 00 00 00 01 	test   r11,0x1000000
    7499:	0f 85 a6 19 00 00    	jne    0x8e45
    749f:	48 3d 00 f0 ff ff    	cmp    rax,0xfffffffffffff000
    74a5:	0f 87 29 03 00 00    	ja     0x77d4
    74ab:	49 be dc 53 e5 f7 ff 	movabs r14,0x7ffff7e553dc
    74b2:	7f 00 00 
    74b5:	49 ff c3             	inc    r11
    74b8:	49 f7 c3 00 00 00 01 	test   r11,0x1000000
    74bf:	0f 85 80 19 00 00    	jne    0x8e45
    74c5:	8b 07                	mov    eax,DWORD PTR [rdi]
    74c7:	d1 e8                	shr    eax,1
    74c9:	0f 85 4d ff ff ff    	jne    0x741c
    74cf:	85 db                	test   ebx,ebx
    74d1:	b8 ff ff ff ff       	mov    eax,0xffffffff
    74d6:	0f 44 d8             	cmove  ebx,eax
    74d9:	49 8b 50 08          	mov    rdx,QWORD PTR [r8+0x8]
    74dd:	41 8b 45 18          	mov    eax,DWORD PTR [r13+0x18]
    74e1:	8d 04 43             	lea    eax,[rbx+rax*2]
    74e4:	48 01 d0             	add    rax,rdx
    74e7:	49 89 40 08          	mov    QWORD PTR [r8+0x8],rax
    74eb:	49 8b 45 20          	mov    rax,QWORD PTR [r13+0x20]
    74ef:	c7 00 00 00 00 00    	mov    DWORD PTR [rax],0x0
    74f5:	49 8b 00             	mov    rax,QWORD PTR [r8]
    74f8:	49 be 0c 54 e5 f7 ff 	movabs r14,0x7ffff7e5540c
    74ff:	7f 00 00 
    7502:	49 ff c3             	inc    r11
    7505:	49 f7 c3 00 00 00 01 	test   r11,0x1000000
    750c:	0f 85 33 19 00 00    	jne    0x8e45
    7512:	48 89 c1             	mov    rcx,rax
    7515:	48 89 c2             	mov    rdx,rax
    7518:	48 83 f1 01          	xor    rcx,0x1
    751c:	f0 49 0f b1 08       	lock cmpxchg QWORD PTR [r8],rcx
    7521:	75 d5                	jne    0x74f8
    7523:	49 be 1d 54 e5 f7 ff 	movabs r14,0x7ffff7e5541d
    752a:	7f 00 00 
    752d:	49 ff c3             	inc    r11
    7530:	49 f7 c3 00 00 00 01 	test   r11,0x1000000
    7537:	0f 85 08 19 00 00    	jne    0x8e45
    753d:	41 8b 45 18          	mov    eax,DWORD PTR [r13+0x18]
    7541:	48 d1 ea             	shr    rdx,1
    7544:	41 03 45 08          	add    eax,DWORD PTR [r13+0x8]
    7548:	29 c2                	sub    edx,eax
    754a:	41 8b 40 20          	mov    eax,DWORD PTR [r8+0x20]
    754e:	8d 0c 95 00 00 00 00 	lea    ecx,[rdx*4+0x0]
    7555:	83 e0 03             	and    eax,0x3
    7558:	09 c8                	or     eax,ecx
    755a:	89 c6                	mov    esi,eax
    755c:	41 87 31             	xchg   DWORD PTR [r9],esi
    755f:	31 f0                	xor    eax,esi
    7561:	a8 03                	test   al,0x3
    7563:	0f 85 b4 03 00 00    	jne    0x791d
    7569:	49 be 49 54 e5 f7 ff 	movabs r14,0x7ffff7e55449
    7570:	7f 00 00 
    7573:	49 ff c3             	inc    r11
    7576:	49 f7 c3 00 00 00 01 	test   r11,0x1000000
    757d:	0f 85 c2 18 00 00    	jne    0x8e45
    7583:	4c 8b 75 a8          	mov    r14,QWORD PTR [rbp-0x58]
    7587:	41 03 56 18          	add    edx,DWORD PTR [r14+0x18]
    758b:	41 89 56 18          	mov    DWORD PTR [r14+0x18],edx
    758f:	4c 89 75 a8          	mov    QWORD PTR [rbp-0x58],r14
    7593:	0f 84 41 01 00 00    	je     0x76da
    7599:	49 8b 7d 28          	mov    rdi,QWORD PTR [r13+0x28]
    759d:	01 d2                	add    edx,edx
    759f:	49 03 7d 10          	add    rdi,QWORD PTR [r13+0x10]
    75a3:	f0 01 17             	lock add DWORD PTR [rdi],edx
    75a6:	4c 8b 75 a8          	mov    r14,QWORD PTR [rbp-0x58]
    75aa:	41 c7 46 18 00 00 00 	mov    DWORD PTR [r14+0x18],0x0
    75b1:	00 
    75b2:	41 8b 40 20          	mov    eax,DWORD PTR [r8+0x20]
    75b6:	4c 89 75 a8          	mov    QWORD PTR [rbp-0x58],r14
    75ba:	49 be 6e 54 e5 f7 ff 	movabs r14,0x7ffff7e5546e
    75c1:	7f 00 00 
    75c4:	49 ff c3             	inc    r11
    75c7:	49 f7 c3 00 00 00 01 	test   r11,0x1000000
    75ce:	0f 85 71 18 00 00    	jne    0x8e45
    75d4:	89 c1                	mov    ecx,eax
    75d6:	89 c2                	mov    edx,eax
    75d8:	83 e1 fc             	and    ecx,0xfffffffc
    75db:	f0 41 0f b1 09       	lock cmpxchg DWORD PTR [r9],ecx
    75e0:	75 d8                	jne    0x75ba
    75e2:	49 be 7c 54 e5 f7 ff 	movabs r14,0x7ffff7e5547c
    75e9:	7f 00 00 
    75ec:	49 ff c3             	inc    r11
    75ef:	49 f7 c3 00 00 00 01 	test   r11,0x1000000
    75f6:	0f 85 49 18 00 00    	jne    0x8e45
    75fc:	83 e2 03             	and    edx,0x3
    75ff:	83 fa 02             	cmp    edx,0x2
    7602:	0f 84 3b 03 00 00    	je     0x7943
    7608:	45 31 d2             	xor    r10d,r10d
    760b:	ba ff ff ff 7f       	mov    edx,0x7fffffff
    7610:	44 89 e6             	mov    esi,r12d
    7613:	b8 ca 00 00 00       	mov    eax,0xca
    7618:	49 be 97 54 e5 f7 ff 	movabs r14,0x7ffff7e55497
    761f:	7f 00 00 
    7622:	e9 03 18 00 00       	jmp    0x8e2a
    7627:	49 be 99 54 e5 f7 ff 	movabs r14,0x7ffff7e55499
    762e:	7f 00 00 
    7631:	49 ff c3             	inc    r11
    7634:	49 f7 c3 00 00 00 01 	test   r11,0x1000000
    763b:	0f 85 04 18 00 00    	jne    0x8e45
    7641:	48 3d 00 f0 ff ff    	cmp    rax,0xfffffffffffff000
    7647:	0f 87 05 02 00 00    	ja     0x7852
    764d:	49 83 c5 38          	add    r13,0x38
    7651:	31 c0                	xor    eax,eax
    7653:	49 8b 5d 00          	mov    rbx,QWORD PTR [r13+0x0]
    7657:	4d 8d 6d 08          	lea    r13,[r13+0x8]
    765b:	4d 8b 65 00          	mov    r12,QWORD PTR [r13+0x0]
    765f:	4d 8d 6d 08          	lea    r13,[r13+0x8]
    7663:	4c 8b 75 98          	mov    r14,QWORD PTR [rbp-0x68]
    7667:	4d 8b 75 00          	mov    r14,QWORD PTR [r13+0x0]
    766b:	4d 8d 6d 08          	lea    r13,[r13+0x8]
    766f:	4c 8b 7d a0          	mov    r15,QWORD PTR [rbp-0x60]
    7673:	4d 8b 7d 00          	mov    r15,QWORD PTR [r13+0x0]
    7677:	4d 8d 6d 08          	lea    r13,[r13+0x8]
    767b:	4c 89 75 98          	mov    QWORD PTR [rbp-0x68],r14
    767f:	4c 8b 75 a8          	mov    r14,QWORD PTR [rbp-0x58]
    7683:	4d 8b 75 00          	mov    r14,QWORD PTR [r13+0x0]
    7687:	4d 8d 6d 08          	lea    r13,[r13+0x8]
    768b:	4c 89 75 a8          	mov    QWORD PTR [rbp-0x58],r14
    768f:	4c 8b 75 b0          	mov    r14,QWORD PTR [rbp-0x50]
    7693:	4d 8b 75 00          	mov    r14,QWORD PTR [r13+0x0]
    7697:	4d 8d 6d 08          	lea    r13,[r13+0x8]
    769b:	4c 89 75 b0          	mov    QWORD PTR [rbp-0x50],r14
    769f:	4d 8b 75 00          	mov    r14,QWORD PTR [r13+0x0]
    76a3:	4d 8d 6d 08          	lea    r13,[r13+0x8]
    76a7:	4c 89 7d a0          	mov    QWORD PTR [rbp-0x60],r15
    76ab:	e9 a2 13 00 00       	jmp    0x8a52
    76b0:	49 be c0 54 e5 f7 ff 	movabs r14,0x7ffff7e554c0
    76b7:	7f 00 00 
    76ba:	49 ff c3             	inc    r11
    76bd:	49 f7 c3 00 00 00 01 	test   r11,0x1000000
    76c4:	0f 85 7b 17 00 00    	jne    0x8e45
    76ca:	4c 8b 75 b0          	mov    r14,QWORD PTR [rbp-0x50]
    76ce:	45 31 f6             	xor    r14d,r14d
    76d1:	4c 89 75 b0          	mov    QWORD PTR [rbp-0x50],r14
    76d5:	e9 56 fb ff ff       	jmp    0x7230
    76da:	41 8b 5d 1c          	mov    ebx,DWORD PTR [r13+0x1c]
    76de:	41 8b 40 20          	mov    eax,DWORD PTR [r8+0x20]
    76e2:	49 be d8 54 e5 f7 ff 	movabs r14,0x7ffff7e554d8
    76e9:	7f 00 00 
    76ec:	49 ff c3             	inc    r11
    76ef:	49 f7 c3 00 00 00 01 	test   r11,0x1000000
    76f6:	0f 85 49 17 00 00    	jne    0x8e45
    76fc:	89 c1                	mov    ecx,eax
    76fe:	89 c2                	mov    edx,eax
    7700:	83 e1 fc             	and    ecx,0xfffffffc
    7703:	f0 41 0f b1 09       	lock cmpxchg DWORD PTR [r9],ecx
    7708:	75 d8                	jne    0x76e2
    770a:	49 be e6 54 e5 f7 ff 	movabs r14,0x7ffff7e554e6
    7711:	7f 00 00 
    7714:	49 ff c3             	inc    r11
    7717:	49 f7 c3 00 00 00 01 	test   r11,0x1000000
    771e:	0f 85 21 17 00 00    	jne    0x8e45
    7724:	83 e2 03             	and    edx,0x3
    7727:	83 fa 02             	cmp    edx,0x2
    772a:	0f 85 1d ff ff ff    	jne    0x764d
    7730:	4c 8b 75 98          	mov    r14,QWORD PTR [rbp-0x68]
    7734:	45 31 f6             	xor    r14d,r14d
    7737:	4c 89 75 98          	mov    QWORD PTR [rbp-0x68],r14
    773b:	45 31 d2             	xor    r10d,r10d
    773e:	ba 01 00 00 00       	mov    edx,0x1
    7743:	44 89 e6             	mov    esi,r12d
    7746:	4c 89 cf             	mov    rdi,r9
    7749:	b8 ca 00 00 00       	mov    eax,0xca
    774e:	49 be 03 55 e5 f7 ff 	movabs r14,0x7ffff7e55503
    7755:	7f 00 00 
    7758:	e9 cd 16 00 00       	jmp    0x8e2a
    775d:	49 be 05 55 e5 f7 ff 	movabs r14,0x7ffff7e55505
    7764:	7f 00 00 
    7767:	49 ff c3             	inc    r11
    776a:	49 f7 c3 00 00 00 01 	test   r11,0x1000000
    7771:	0f 85 ce 16 00 00    	jne    0x8e45
    7777:	48 3d 00 f0 ff ff    	cmp    rax,0xfffffffffffff000
    777d:	0f 87 55 01 00 00    	ja     0x78d8
    7783:	49 be 0d 55 e5 f7 ff 	movabs r14,0x7ffff7e5550d
    778a:	7f 00 00 
    778d:	49 ff c3             	inc    r11
    7790:	49 f7 c3 00 00 00 01 	test   r11,0x1000000
    7797:	0f 85 a8 16 00 00    	jne    0x8e45
    779d:	4c 8b 75 98          	mov    r14,QWORD PTR [rbp-0x68]
    77a1:	45 84 f6             	test   r14b,r14b
    77a4:	4c 89 75 98          	mov    QWORD PTR [rbp-0x68],r14
    77a8:	0f 84 9f fe ff ff    	je     0x764d
    77ae:	49 be 12 55 e5 f7 ff 	movabs r14,0x7ffff7e55512
    77b5:	7f 00 00 
    77b8:	49 ff c3             	inc    r11
    77bb:	49 f7 c3 00 00 00 01 	test   r11,0x1000000
    77c2:	0f 85 7d 16 00 00    	jne    0x8e45
    77c8:	89 db                	mov    ebx,ebx
    77ca:	49 8d 7c 98 28       	lea    rdi,[r8+rbx*4+0x28]
    77cf:	e9 34 fe ff ff       	jmp    0x7608
    77d4:	49 be 20 55 e5 f7 ff 	movabs r14,0x7ffff7e55520
    77db:	7f 00 00 
    77de:	49 ff c3             	inc    r11
    77e1:	49 f7 c3 00 00 00 01 	test   r11,0x1000000
    77e8:	0f 85 57 16 00 00    	jne    0x8e45
    77ee:	8d 48 0b             	lea    ecx,[rax+0xb]
    77f1:	83 f9 0b             	cmp    ecx,0xb
    77f4:	77 33                	ja     0x7829
    77f6:	49 be 28 55 e5 f7 ff 	movabs r14,0x7ffff7e55528
    77fd:	7f 00 00 
    7800:	49 ff c3             	inc    r11
    7803:	49 f7 c3 00 00 00 01 	test   r11,0x1000000
    780a:	0f 85 35 16 00 00    	jne    0x8e45
    7810:	4c 8b 75 a0          	mov    r14,QWORD PTR [rbp-0x60]
    7814:	4c 89 f0             	mov    rax,r14
    7817:	48 d3 e0             	shl    rax,cl
    781a:	a9 81 08 00 00       	test   eax,0x881
    781f:	4c 89 75 a0          	mov    QWORD PTR [rbp-0x60],r14
    7823:	0f 85 82 fc ff ff    	jne    0x74ab
    7829:	49 be 40 55 e5 f7 ff 	movabs r14,0x7ffff7e55540
    7830:	7f 00 00 
    7833:	49 8d be c0 6a 00 00 	lea    rdi,[r14+0x6ac0]
    783a:	49 be 45 55 e5 f7 ff 	movabs r14,0x7ffff7e55545
    7841:	7f 00 00 
    7844:	4d 8d 6d f8          	lea    r13,[r13-0x8]
    7848:	4d 89 75 00          	mov    QWORD PTR [r13+0x0],r14
    784c:	e9 2b 14 00 00       	jmp    0x8c7c
    7851:	90                   	nop
    7852:	49 be 48 55 e5 f7 ff 	movabs r14,0x7ffff7e55548
    7859:	7f 00 00 
    785c:	49 ff c3             	inc    r11
    785f:	49 f7 c3 00 00 00 01 	test   r11,0x1000000
    7866:	0f 85 d9 15 00 00    	jne    0x8e45
    786c:	83 c0 16             	add    eax,0x16
    786f:	83 e0 f7             	and    eax,0xfffffff7
    7872:	75 b5                	jne    0x7829
    7874:	49 be 50 55 e5 f7 ff 	movabs r14,0x7ffff7e55550
    787b:	7f 00 00 
    787e:	49 ff c3             	inc    r11
    7881:	49 f7 c3 00 00 00 01 	test   r11,0x1000000
    7888:	0f 85 b7 15 00 00    	jne    0x8e45
    788e:	e9 ba fd ff ff       	jmp    0x764d
    7893:	49 be 58 55 e5 f7 ff 	movabs r14,0x7ffff7e55558
    789a:	7f 00 00 
    789d:	49 ff c3             	inc    r11
    78a0:	49 f7 c3 00 00 00 01 	test   r11,0x1000000
    78a7:	0f 85 98 15 00 00    	jne    0x8e45
    78ad:	83 c0 16             	add    eax,0x16
    78b0:	83 e0 f7             	and    eax,0xfffffff7
    78b3:	0f 85 70 ff ff ff    	jne    0x7829
    78b9:	49 be 60 55 e5 f7 ff 	movabs r14,0x7ffff7e55560
    78c0:	7f 00 00 
    78c3:	49 ff c3             	inc    r11
    78c6:	49 f7 c3 00 00 00 01 	test   r11,0x1000000
    78cd:	0f 85 72 15 00 00    	jne    0x8e45
    78d3:	e9 57 fa ff ff       	jmp    0x732f
    78d8:	49 be 68 55 e5 f7 ff 	movabs r14,0x7ffff7e55568
    78df:	7f 00 00 
    78e2:	49 ff c3             	inc    r11
    78e5:	49 f7 c3 00 00 00 01 	test   r11,0x1000000
    78ec:	0f 85 53 15 00 00    	jne    0x8e45
    78f2:	83 c0 16             	add    eax,0x16
    78f5:	83 e0 f7             	and    eax,0xfffffff7
    78f8:	0f 85 2b ff ff ff    	jne    0x7829
    78fe:	49 be 70 55 e5 f7 ff 	movabs r14,0x7ffff7e55570
    7905:	7f 00 00 
    7908:	49 ff c3             	inc    r11
    790b:	49 f7 c3 00 00 00 01 	test   r11,0x1000000
    7912:	0f 85 2d 15 00 00    	jne    0x8e45
    7918:	e9 66 fe ff ff       	jmp    0x7783
    791d:	49 be 78 55 e5 f7 ff 	movabs r14,0x7ffff7e55578
    7924:	7f 00 00 
    7927:	49 ff c3             	inc    r11
    792a:	49 f7 c3 00 00 00 01 	test   r11,0x1000000
    7931:	0f 85 0e 15 00 00    	jne    0x8e45
    7937:	83 c9 02             	or     ecx,0x2
    793a:	41 89 48 20          	mov    DWORD PTR [r8+0x20],ecx
    793e:	e9 26 fc ff ff       	jmp    0x7569
    7943:	49 be 88 55 e5 f7 ff 	movabs r14,0x7ffff7e55588
    794a:	7f 00 00 
    794d:	49 ff c3             	inc    r11
    7950:	49 f7 c3 00 00 00 01 	test   r11,0x1000000
    7957:	0f 85 e8 14 00 00    	jne    0x8e45
    795d:	41 8b 5d 1c          	mov    ebx,DWORD PTR [r13+0x1c]
    7961:	4c 8b 75 98          	mov    r14,QWORD PTR [rbp-0x68]
    7965:	41 be 01 00 00 00    	mov    r14d,0x1
    796b:	4c 89 75 98          	mov    QWORD PTR [rbp-0x68],r14
    796f:	e9 c7 fd ff ff       	jmp    0x773b
    7974:	49 be a0 55 e5 f7 ff 	movabs r14,0x7ffff7e555a0
    797b:	7f 00 00 
    797e:	49 ff c3             	inc    r11
    7981:	49 f7 c3 00 00 00 01 	test   r11,0x1000000
    7988:	0f 85 b7 14 00 00    	jne    0x8e45
    798e:	4c 8b 75 98          	mov    r14,QWORD PTR [rbp-0x68]
    7992:	41 be ca 00 00 00    	mov    r14d,0xca
    7998:	bb 01 00 00 00       	mov    ebx,0x1
    799d:	4c 89 75 98          	mov    QWORD PTR [rbp-0x68],r14
    79a1:	eb 03                	jmp    0x79a6
    79a3:	41 8b 01             	mov    eax,DWORD PTR [r9]
    79a6:	49 be b0 55 e5 f7 ff 	movabs r14,0x7ffff7e555b0
    79ad:	7f 00 00 
    79b0:	49 ff c3             	inc    r11
    79b3:	49 f7 c3 00 00 00 01 	test   r11,0x1000000
    79ba:	0f 85 85 14 00 00    	jne    0x8e45
    79c0:	89 c2                	mov    edx,eax
    79c2:	89 c1                	mov    ecx,eax
    79c4:	83 e2 fc             	and    edx,0xfffffffc
    79c7:	83 e1 03             	and    ecx,0x3
    79ca:	83 ca 02             	or     edx,0x2
    79cd:	83 f9 02             	cmp    ecx,0x2
    79d0:	74 4b                	je     0x7a1d
    79d2:	49 be c2 55 e5 f7 ff 	movabs r14,0x7ffff7e555c2
    79d9:	7f 00 00 
    79dc:	49 ff c3             	inc    r11
    79df:	49 f7 c3 00 00 00 01 	test   r11,0x1000000
    79e6:	0f 85 59 14 00 00    	jne    0x8e45
    79ec:	f0 41 0f b1 11       	lock cmpxchg DWORD PTR [r9],edx
    79f1:	75 b3                	jne    0x79a6
    79f3:	49 be c9 55 e5 f7 ff 	movabs r14,0x7ffff7e555c9
    79fa:	7f 00 00 
    79fd:	49 ff c3             	inc    r11
    7a00:	49 f7 c3 00 00 00 01 	test   r11,0x1000000
    7a07:	0f 85 38 14 00 00    	jne    0x8e45
    7a0d:	a8 03                	test   al,0x3
    7a0f:	0f 84 6b f8 ff ff    	je     0x7280
    7a15:	83 e0 fc             	and    eax,0xfffffffc
    7a18:	83 c8 02             	or     eax,0x2
    7a1b:	89 c2                	mov    edx,eax
    7a1d:	45 31 d2             	xor    r10d,r10d
    7a20:	4c 8b 75 b0          	mov    r14,QWORD PTR [rbp-0x50]
    7a24:	44 89 f6             	mov    esi,r14d
    7a27:	4c 89 cf             	mov    rdi,r9
    7a2a:	4c 8b 7d 98          	mov    r15,QWORD PTR [rbp-0x68]
    7a2e:	44 89 f8             	mov    eax,r15d
    7a31:	49 be e5 55 e5 f7 ff 	movabs r14,0x7ffff7e555e5
    7a38:	7f 00 00 
    7a3b:	e9 ea 13 00 00       	jmp    0x8e2a
    7a40:	49 be e7 55 e5 f7 ff 	movabs r14,0x7ffff7e555e7
    7a47:	7f 00 00 
    7a4a:	49 ff c3             	inc    r11
    7a4d:	49 f7 c3 00 00 00 01 	test   r11,0x1000000
    7a54:	0f 85 eb 13 00 00    	jne    0x8e45
    7a5a:	48 3d 00 f0 ff ff    	cmp    rax,0xfffffffffffff000
    7a60:	0f 86 3d ff ff ff    	jbe    0x79a3
    7a66:	49 be ef 55 e5 f7 ff 	movabs r14,0x7ffff7e555ef
    7a6d:	7f 00 00 
    7a70:	49 ff c3             	inc    r11
    7a73:	49 f7 c3 00 00 00 01 	test   r11,0x1000000
    7a7a:	0f 85 c5 13 00 00    	jne    0x8e45
    7a80:	8d 48 0b             	lea    ecx,[rax+0xb]
    7a83:	83 f9 0b             	cmp    ecx,0xb
    7a86:	0f 87 9d fd ff ff    	ja     0x7829
    7a8c:	49 be fb 55 e5 f7 ff 	movabs r14,0x7ffff7e555fb
    7a93:	7f 00 00 
    7a96:	49 ff c3             	inc    r11
    7a99:	49 f7 c3 00 00 00 01 	test   r11,0x1000000
    7aa0:	0f 85 9f 13 00 00    	jne    0x8e45
    7aa6:	48 89 d8             	mov    rax,rbx
    7aa9:	48 d3 e0             	shl    rax,cl
    7aac:	a9 81 08 00 00       	test   eax,0x881
    7ab1:	0f 84 72 fd ff ff    	je     0x7829
    7ab7:	49 be 0c 56 e5 f7 ff 	movabs r14,0x7ffff7e5560c
    7abe:	7f 00 00 
    7ac1:	49 ff c3             	inc    r11
    7ac4:	49 f7 c3 00 00 00 01 	test   r11,0x1000000
    7acb:	0f 85 74 13 00 00    	jne    0x8e45
    7ad1:	e9 cd fe ff ff       	jmp    0x79a3
    7ad6:	49 be b0 61 e5 f7 ff 	movabs r14,0x7ffff7e561b0
    7add:	7f 00 00 
    7ae0:	49 ff c3             	inc    r11
    7ae3:	49 f7 c3 00 00 00 01 	test   r11,0x1000000
    7aea:	0f 85 55 13 00 00    	jne    0x8e45
    7af0:	90                   	nop
    7af1:	83 ff 01             	cmp    edi,0x1
    7af4:	0f 87 8b 01 00 00    	ja     0x7c85
    7afa:	49 be bd 61 e5 f7 ff 	movabs r14,0x7ffff7e561bd
    7b01:	7f 00 00 
    7b04:	49 ff c3             	inc    r11
    7b07:	49 f7 c3 00 00 00 01 	test   r11,0x1000000
    7b0e:	0f 85 31 13 00 00    	jne    0x8e45
    7b14:	49 83 ed 18          	sub    r13,0x18
    7b18:	4c 8b 75 80          	mov    r14,QWORD PTR [rbp-0x80]
    7b1c:	4d 8b 46 10          	mov    r8,QWORD PTR [r14+0x10]
    7b20:	41 8b 86 08 03 00 00 	mov    eax,DWORD PTR [r14+0x308]
    7b27:	41 89 45 0c          	mov    DWORD PTR [r13+0xc],eax
    7b2b:	41 8b 4d 0c          	mov    ecx,DWORD PTR [r13+0xc]
    7b2f:	83 ff 01             	cmp    edi,0x1
    7b32:	0f 84 b4 00 00 00    	je     0x7bec
    7b38:	49 be df 61 e5 f7 ff 	movabs r14,0x7ffff7e561df
    7b3f:	7f 00 00 
    7b42:	49 ff c3             	inc    r11
    7b45:	49 f7 c3 00 00 00 01 	test   r11,0x1000000
    7b4c:	0f 85 f3 12 00 00    	jne    0x8e45
    7b52:	48 85 f6             	test   rsi,rsi
    7b55:	0f 84 b3 01 00 00    	je     0x7d0e
    7b5b:	49 be e8 61 e5 f7 ff 	movabs r14,0x7ffff7e561e8
    7b62:	7f 00 00 
    7b65:	49 ff c3             	inc    r11
    7b68:	49 f7 c3 00 00 00 01 	test   r11,0x1000000
    7b6f:	0f 85 d0 12 00 00    	jne    0x8e45
    7b75:	89 c8                	mov    eax,ecx
    7b77:	89 ca                	mov    edx,ecx
    7b79:	83 e0 01             	and    eax,0x1
    7b7c:	83 e2 fe             	and    edx,0xfffffffe
    7b7f:	89 06                	mov    DWORD PTR [rsi],eax
    7b81:	f6 c1 01             	test   cl,0x1
    7b84:	74 53                	je     0x7bd9
    7b86:	49 be f9 61 e5 f7 ff 	movabs r14,0x7ffff7e561f9
    7b8d:	7f 00 00 
    7b90:	49 ff c3             	inc    r11
    7b93:	49 f7 c3 00 00 00 01 	test   r11,0x1000000
    7b9a:	0f 85 a5 12 00 00    	jne    0x8e45
    7ba0:	89 c8                	mov    eax,ecx
    7ba2:	f0 41 0f b1 90 08 03 	lock cmpxchg DWORD PTR [r8+0x308],edx
    7ba9:	00 00 
    7bab:	39 c1                	cmp    ecx,eax
    7bad:	0f 85 cc 01 00 00    	jne    0x7d7f
    7bb3:	49 be 0c 62 e5 f7 ff 	movabs r14,0x7ffff7e5620c
    7bba:	7f 00 00 
    7bbd:	49 ff c3             	inc    r11
    7bc0:	49 f7 c3 00 00 00 01 	test   r11,0x1000000
    7bc7:	0f 85 78 12 00 00    	jne    0x8e45
    7bcd:	83 e2 bb             	and    edx,0xffffffbb
    7bd0:	83 fa 0a             	cmp    edx,0xa
    7bd3:	0f 84 c7 01 00 00    	je     0x7da0
    7bd9:	31 c0                	xor    eax,eax
    7bdb:	49 83 c5 18          	add    r13,0x18
    7bdf:	4d 8b 75 00          	mov    r14,QWORD PTR [r13+0x0]
    7be3:	4d 8d 6d 08          	lea    r13,[r13+0x8]
    7be7:	e9 07 0b 00 00       	jmp    0x86f3
    7bec:	49 be 20 62 e5 f7 ff 	movabs r14,0x7ffff7e56220
    7bf3:	7f 00 00 
    7bf6:	49 ff c3             	inc    r11
    7bf9:	49 f7 c3 00 00 00 01 	test   r11,0x1000000
    7c00:	0f 85 3f 12 00 00    	jne    0x8e45
    7c06:	48 85 f6             	test   rsi,rsi
    7c09:	0f 84 8b 00 00 00    	je     0x7c9a
    7c0f:	49 be 25 62 e5 f7 ff 	movabs r14,0x7ffff7e56225
    7c16:	7f 00 00 
    7c19:	49 ff c3             	inc    r11
    7c1c:	49 f7 c3 00 00 00 01 	test   r11,0x1000000
    7c23:	0f 85 1c 12 00 00    	jne    0x8e45
    7c29:	89 c8                	mov    eax,ecx
    7c2b:	89 ca                	mov    edx,ecx
    7c2d:	83 e0 01             	and    eax,0x1
    7c30:	83 ca 01             	or     edx,0x1
    7c33:	89 06                	mov    DWORD PTR [rsi],eax
    7c35:	f6 c1 01             	test   cl,0x1
    7c38:	75 9f                	jne    0x7bd9
    7c3a:	49 be 36 62 e5 f7 ff 	movabs r14,0x7ffff7e56236
    7c41:	7f 00 00 
    7c44:	49 ff c3             	inc    r11
    7c47:	49 f7 c3 00 00 00 01 	test   r11,0x1000000
    7c4e:	0f 85 f1 11 00 00    	jne    0x8e45
    7c54:	89 c8                	mov    eax,ecx
    7c56:	f0 41 0f b1 90 08 03 	lock cmpxchg DWORD PTR [r8+0x308],edx
    7c5d:	00 00 
    7c5f:	39 c1                	cmp    ecx,eax
    7c61:	0f 84 4c ff ff ff    	je     0x7bb3
    7c67:	49 be 45 62 e5 f7 ff 	movabs r14,0x7ffff7e56245
    7c6e:	7f 00 00 
    7c71:	49 ff c3             	inc    r11
    7c74:	49 f7 c3 00 00 00 01 	test   r11,0x1000000
    7c7b:	0f 85 c4 11 00 00    	jne    0x8e45
    7c81:	89 c1                	mov    ecx,eax
    7c83:	eb 8a                	jmp    0x7c0f
    7c85:	b8 16 00 00 00       	mov    eax,0x16
    7c8a:	4d 8b 75 00          	mov    r14,QWORD PTR [r13+0x0]
    7c8e:	4d 8d 6d 08          	lea    r13,[r13+0x8]
    7c92:	e9 4b 0e 00 00       	jmp    0x8ae2
    7c97:	89 c1                	mov    ecx,eax
    7c99:	90                   	nop
    7c9a:	49 be 60 62 e5 f7 ff 	movabs r14,0x7ffff7e56260
    7ca1:	7f 00 00 
    7ca4:	49 ff c3             	inc    r11
    7ca7:	49 f7 c3 00 00 00 01 	test   r11,0x1000000
    7cae:	0f 85 91 11 00 00    	jne    0x8e45
    7cb4:	89 ca                	mov    edx,ecx
    7cb6:	83 ca 01             	or     edx,0x1
    7cb9:	f6 c1 01             	test   cl,0x1
    7cbc:	0f 85 17 ff ff ff    	jne    0x7bd9
    7cc2:	49 be 6a 62 e5 f7 ff 	movabs r14,0x7ffff7e5626a
    7cc9:	7f 00 00 
    7ccc:	49 ff c3             	inc    r11
    7ccf:	49 f7 c3 00 00 00 01 	test   r11,0x1000000
    7cd6:	0f 85 69 11 00 00    	jne    0x8e45
    7cdc:	89 c8                	mov    eax,ecx
    7cde:	f0 41 0f b1 90 08 03 	lock cmpxchg DWORD PTR [r8+0x308],edx
    7ce5:	00 00 
    7ce7:	39 c1                	cmp    ecx,eax
    7ce9:	0f 84 c4 fe ff ff    	je     0x7bb3
    7cef:	49 be 79 62 e5 f7 ff 	movabs r14,0x7ffff7e56279
    7cf6:	7f 00 00 
    7cf9:	49 ff c3             	inc    r11
    7cfc:	49 f7 c3 00 00 00 01 	test   r11,0x1000000
    7d03:	0f 85 3c 11 00 00    	jne    0x8e45
    7d09:	eb 8c                	jmp    0x7c97
    7d0b:	89 c1                	mov    ecx,eax
    7d0d:	90                   	nop
    7d0e:	49 be 88 62 e5 f7 ff 	movabs r14,0x7ffff7e56288
    7d15:	7f 00 00 
    7d18:	49 ff c3             	inc    r11
    7d1b:	49 f7 c3 00 00 00 01 	test   r11,0x1000000
    7d22:	0f 85 1d 11 00 00    	jne    0x8e45
    7d28:	89 ca                	mov    edx,ecx
    7d2a:	83 e2 fe             	and    edx,0xfffffffe
    7d2d:	f6 c1 01             	test   cl,0x1
    7d30:	0f 84 a3 fe ff ff    	je     0x7bd9
    7d36:	49 be 92 62 e5 f7 ff 	movabs r14,0x7ffff7e56292
    7d3d:	7f 00 00 
    7d40:	49 ff c3             	inc    r11
    7d43:	49 f7 c3 00 00 00 01 	test   r11,0x1000000
    7d4a:	0f 85 f5 10 00 00    	jne    0x8e45
    7d50:	89 c8                	mov    eax,ecx
    7d52:	f0 41 0f b1 90 08 03 	lock cmpxchg DWORD PTR [r8+0x308],edx
    7d59:	00 00 
    7d5b:	39 c1                	cmp    ecx,eax
    7d5d:	0f 84 50 fe ff ff    	je     0x7bb3
    7d63:	49 be a5 62 e5 f7 ff 	movabs r14,0x7ffff7e562a5
    7d6a:	7f 00 00 
    7d6d:	49 ff c3             	inc    r11
    7d70:	49 f7 c3 00 00 00 01 	test   r11,0x1000000
    7d77:	0f 85 c8 10 00 00    	jne    0x8e45
    7d7d:	eb 8c                	jmp    0x7d0b
    7d7f:	49 be b0 62 e5 f7 ff 	movabs r14,0x7ffff7e562b0
    7d86:	7f 00 00 
    7d89:	49 ff c3             	inc    r11
    7d8c:	49 f7 c3 00 00 00 01 	test   r11,0x1000000
    7d93:	0f 85 ac 10 00 00    	jne    0x8e45
    7d99:	89 c1                	mov    ecx,eax
    7d9b:	e9 bb fd ff ff       	jmp    0x7b5b
    7da0:	4c 8b 75 80          	mov    r14,QWORD PTR [rbp-0x80]
    7da4:	49 8b 46 10          	mov    rax,QWORD PTR [r14+0x10]
    7da8:	f0 83 88 08 03 00 00 	lock or DWORD PTR [rax+0x308],0x10
    7daf:	10 
    7db0:	49 8b be 00 03 00 00 	mov    rdi,QWORD PTR [r14+0x300]
    7db7:	49 bf d6 62 e5 f7 ff 	movabs r15,0x7ffff7e562d6
    7dbe:	7f 00 00 
    7dc1:	4d 8d 6d f8          	lea    r13,[r13-0x8]
    7dc5:	4d 89 7d 00          	mov    QWORD PTR [r13+0x0],r15
    7dc9:	e9 7a 0e 00 00       	jmp    0x8c48
    7dce:	49 be d6 62 e5 f7 ff 	movabs r14,0x7ffff7e562d6
    7dd5:	7f 00 00 
    7dd8:	49 ff c3             	inc    r11
    7ddb:	49 f7 c3 00 00 00 01 	test   r11,0x1000000
    7de2:	0f 85 5d 10 00 00    	jne    0x8e45
    7de8:	90                   	nop
    7de9:	90                   	nop
    7dea:	83 ff 01             	cmp    edi,0x1
    7ded:	0f 87 8e 01 00 00    	ja     0x7f81
    7df3:	49 be ed 62 e5 f7 ff 	movabs r14,0x7ffff7e562ed
    7dfa:	7f 00 00 
    7dfd:	49 ff c3             	inc    r11
    7e00:	49 f7 c3 00 00 00 01 	test   r11,0x1000000
    7e07:	0f 85 38 10 00 00    	jne    0x8e45
    7e0d:	49 83 ed 18          	sub    r13,0x18
    7e11:	4c 8b 75 80          	mov    r14,QWORD PTR [rbp-0x80]
    7e15:	4d 8b 46 10          	mov    r8,QWORD PTR [r14+0x10]
    7e19:	41 8b 86 08 03 00 00 	mov    eax,DWORD PTR [r14+0x308]
    7e20:	41 89 45 0c          	mov    DWORD PTR [r13+0xc],eax
    7e24:	41 8b 4d 0c          	mov    ecx,DWORD PTR [r13+0xc]
    7e28:	83 ff 01             	cmp    edi,0x1
    7e2b:	0f 84 b6 00 00 00    	je     0x7ee7
    7e31:	49 be 0f 63 e5 f7 ff 	movabs r14,0x7ffff7e5630f
    7e38:	7f 00 00 
    7e3b:	49 ff c3             	inc    r11
    7e3e:	49 f7 c3 00 00 00 01 	test   r11,0x1000000
    7e45:	0f 85 fa 0f 00 00    	jne    0x8e45
    7e4b:	48 85 f6             	test   rsi,rsi
    7e4e:	0f 84 b4 01 00 00    	je     0x8008
    7e54:	49 be 18 63 e5 f7 ff 	movabs r14,0x7ffff7e56318
    7e5b:	7f 00 00 
    7e5e:	49 ff c3             	inc    r11
    7e61:	49 f7 c3 00 00 00 01 	test   r11,0x1000000
    7e68:	0f 85 d7 0f 00 00    	jne    0x8e45
    7e6e:	89 c8                	mov    eax,ecx
    7e70:	89 ca                	mov    edx,ecx
    7e72:	d1 f8                	sar    eax,1
    7e74:	83 e2 fd             	and    edx,0xfffffffd
    7e77:	83 e0 01             	and    eax,0x1
    7e7a:	89 06                	mov    DWORD PTR [rsi],eax
    7e7c:	f6 c1 02             	test   cl,0x2
    7e7f:	74 53                	je     0x7ed4
    7e81:	49 be 2b 63 e5 f7 ff 	movabs r14,0x7ffff7e5632b
    7e88:	7f 00 00 
    7e8b:	49 ff c3             	inc    r11
    7e8e:	49 f7 c3 00 00 00 01 	test   r11,0x1000000
    7e95:	0f 85 aa 0f 00 00    	jne    0x8e45
    7e9b:	89 c8                	mov    eax,ecx
    7e9d:	f0 41 0f b1 90 08 03 	lock cmpxchg DWORD PTR [r8+0x308],edx
    7ea4:	00 00 
    7ea6:	39 c1                	cmp    ecx,eax
    7ea8:	0f 85 cb 01 00 00    	jne    0x8079
    7eae:	49 be 3e 63 e5 f7 ff 	movabs r14,0x7ffff7e5633e
    7eb5:	7f 00 00 
    7eb8:	49 ff c3             	inc    r11
    7ebb:	49 f7 c3 00 00 00 01 	test   r11,0x1000000
    7ec2:	0f 85 7d 0f 00 00    	jne    0x8e45
    7ec8:	83 e2 bb             	and    edx,0xffffffbb
    7ecb:	83 fa 0a             	cmp    edx,0xa
    7ece:	0f 84 c6 01 00 00    	je     0x809a
    7ed4:	31 c0                	xor    eax,eax
    7ed6:	49 83 c5 18          	add    r13,0x18
    7eda:	4d 8b 75 00          	mov    r14,QWORD PTR [r13+0x0]
    7ede:	4d 8d 6d 08          	lea    r13,[r13+0x8]
    7ee2:	e9 19 0c 00 00       	jmp    0x8b00
    7ee7:	49 be 58 63 e5 f7 ff 	movabs r14,0x7ffff7e56358
    7eee:	7f 00 00 
    7ef1:	49 ff c3             	inc    r11
    7ef4:	49 f7 c3 00 00 00 01 	test   r11,0x1000000
    7efb:	0f 85 44 0f 00 00    	jne    0x8e45
    7f01:	48 85 f6             	test   rsi,rsi
    7f04:	0f 84 8b 00 00 00    	je     0x7f95
    7f0a:	49 be 5d 63 e5 f7 ff 	movabs r14,0x7ffff7e5635d
    7f11:	7f 00 00 
    7f14:	49 ff c3             	inc    r11
    7f17:	49 f7 c3 00 00 00 01 	test   r11,0x1000000
    7f1e:	0f 85 21 0f 00 00    	jne    0x8e45
    7f24:	89 c8                	mov    eax,ecx
    7f26:	89 ca                	mov    edx,ecx
    7f28:	d1 f8                	sar    eax,1
    7f2a:	83 ca 02             	or     edx,0x2
    7f2d:	83 e0 01             	and    eax,0x1
    7f30:	89 06                	mov    DWORD PTR [rsi],eax
    7f32:	39 d1                	cmp    ecx,edx
    7f34:	74 9e                	je     0x7ed4
    7f36:	49 be 6f 63 e5 f7 ff 	movabs r14,0x7ffff7e5636f
    7f3d:	7f 00 00 
    7f40:	49 ff c3             	inc    r11
    7f43:	49 f7 c3 00 00 00 01 	test   r11,0x1000000
    7f4a:	0f 85 f5 0e 00 00    	jne    0x8e45
    7f50:	89 c8                	mov    eax,ecx
    7f52:	f0 41 0f b1 90 08 03 	lock cmpxchg DWORD PTR [r8+0x308],edx
    7f59:	00 00 
    7f5b:	39 c1                	cmp    ecx,eax
    7f5d:	0f 84 4b ff ff ff    	je     0x7eae
    7f63:	49 be 7e 63 e5 f7 ff 	movabs r14,0x7ffff7e5637e
    7f6a:	7f 00 00 
    7f6d:	49 ff c3             	inc    r11
    7f70:	49 f7 c3 00 00 00 01 	test   r11,0x1000000
    7f77:	0f 85 c8 0e 00 00    	jne    0x8e45
    7f7d:	89 c1                	mov    ecx,eax
    7f7f:	eb 89                	jmp    0x7f0a
    7f81:	b8 16 00 00 00       	mov    eax,0x16
    7f86:	4d 8b 75 00          	mov    r14,QWORD PTR [r13+0x0]
    7f8a:	4d 8d 6d 08          	lea    r13,[r13+0x8]
    7f8e:	e9 5e 0b 00 00       	jmp    0x8af1
    7f93:	89 c1                	mov    ecx,eax
    7f95:	49 be 90 63 e5 f7 ff 	movabs r14,0x7ffff7e56390
    7f9c:	7f 00 00 
    7f9f:	49 ff c3             	inc    r11
    7fa2:	49 f7 c3 00 00 00 01 	test   r11,0x1000000
    7fa9:	0f 85 96 0e 00 00    	jne    0x8e45
    7faf:	89 ca                	mov    edx,ecx
    7fb1:	83 ca 02             	or     edx,0x2
    7fb4:	39 d1                	cmp    ecx,edx
    7fb6:	0f 84 18 ff ff ff    	je     0x7ed4
    7fbc:	49 be 99 63 e5 f7 ff 	movabs r14,0x7ffff7e56399
    7fc3:	7f 00 00 
    7fc6:	49 ff c3             	inc    r11
    7fc9:	49 f7 c3 00 00 00 01 	test   r11,0x1000000
    7fd0:	0f 85 6f 0e 00 00    	jne    0x8e45
    7fd6:	89 c8                	mov    eax,ecx
    7fd8:	f0 41 0f b1 90 08 03 	lock cmpxchg DWORD PTR [r8+0x308],edx
    7fdf:	00 00 
    7fe1:	39 c1                	cmp    ecx,eax
    7fe3:	0f 84 c5 fe ff ff    	je     0x7eae
    7fe9:	49 be a8 63 e5 f7 ff 	movabs r14,0x7ffff7e563a8
    7ff0:	7f 00 00 
    7ff3:	49 ff c3             	inc    r11
    7ff6:	49 f7 c3 00 00 00 01 	test   r11,0x1000000
    7ffd:	0f 85 42 0e 00 00    	jne    0x8e45
    8003:	eb 8e                	jmp    0x7f93
    8005:	89 c1                	mov    ecx,eax
    8007:	90                   	nop
    8008:	49 be b8 63 e5 f7 ff 	movabs r14,0x7ffff7e563b8
    800f:	7f 00 00 
    8012:	49 ff c3             	inc    r11
    8015:	49 f7 c3 00 00 00 01 	test   r11,0x1000000
    801c:	0f 85 23 0e 00 00    	jne    0x8e45
    8022:	89 ca                	mov    edx,ecx
    8024:	83 e2 fd             	and    edx,0xfffffffd
    8027:	f6 c1 02             	test   cl,0x2
    802a:	0f 84 a4 fe ff ff    	je     0x7ed4
    8030:	49 be c2 63 e5 f7 ff 	movabs r14,0x7ffff7e563c2
    8037:	7f 00 00 
    803a:	49 ff c3             	inc    r11
    803d:	49 f7 c3 00 00 00 01 	test   r11,0x1000000
    8044:	0f 85 fb 0d 00 00    	jne    0x8e45
    804a:	89 c8                	mov    eax,ecx
    804c:	f0 41 0f b1 90 08 03 	lock cmpxchg DWORD PTR [r8+0x308],edx
    8053:	00 00 
    8055:	39 c1                	cmp    ecx,eax
    8057:	0f 84 51 fe ff ff    	je     0x7eae
    805d:	49 be d5 63 e5 f7 ff 	movabs r14,0x7ffff7e563d5
    8064:	7f 00 00 
    8067:	49 ff c3             	inc    r11
    806a:	49 f7 c3 00 00 00 01 	test   r11,0x1000000
    8071:	0f 85 ce 0d 00 00    	jne    0x8e45
    8077:	eb 8c                	jmp    0x8005
    8079:	49 be e0 63 e5 f7 ff 	movabs r14,0x7ffff7e563e0
    8080:	7f 00 00 
    8083:	49 ff c3             	inc    r11
    8086:	49 f7 c3 00 00 00 01 	test   r11,0x1000000
    808d:	0f 85 b2 0d 00 00    	jne    0x8e45
    8093:	89 c1                	mov    ecx,eax
    8095:	e9 ba fd ff ff       	jmp    0x7e54
    809a:	4c 8b 75 80          	mov    r14,QWORD PTR [rbp-0x80]
    809e:	49 c7 86 30 06 00 00 	mov    QWORD PTR [r14+0x630],0xffffffffffffffff
    80a5:	ff ff ff ff 
    80a9:	49 8b 46 10          	mov    rax,QWORD PTR [r14+0x10]
    80ad:	f0 83 88 08 03 00 00 	lock or DWORD PTR [rax+0x308],0x10
    80b4:	10 
    80b5:	49 8b be 00 03 00 00 	mov    rdi,QWORD PTR [r14+0x300]
    80bc:	49 bf 13 64 e5 f7 ff 	movabs r15,0x7ffff7e56413
    80c3:	7f 00 00 
    80c6:	4d 8d 6d f8          	lea    r13,[r13-0x8]
    80ca:	4d 89 7d 00          	mov    QWORD PTR [r13+0x0],r15
    80ce:	e9 75 0b 00 00       	jmp    0x8c48
    80d3:	90                   	nop
    80d4:	90                   	nop
    80d5:	4d 8d 6d f8          	lea    r13,[r13-0x8]
    80d9:	4c 8b 75 98          	mov    r14,QWORD PTR [rbp-0x68]
    80dd:	4d 89 75 00          	mov    QWORD PTR [r13+0x0],r14
    80e1:	41 b9 ca 00 00 00    	mov    r9d,0xca
    80e7:	41 b8 01 00 00 00    	mov    r8d,0x1
    80ed:	4d 8d 6d f8          	lea    r13,[r13-0x8]
    80f1:	4d 89 65 00          	mov    QWORD PTR [r13+0x0],r12
    80f5:	49 89 fc             	mov    r12,rdi
    80f8:	4d 8d 6d f8          	lea    r13,[r13-0x8]
    80fc:	49 89 5d 00          	mov    QWORD PTR [r13+0x0],rbx
    8100:	48 89 f3             	mov    rbx,rsi
    8103:	49 83 ed 30          	sub    r13,0x30
    8107:	4c 8b 7d 80          	mov    r15,QWORD PTR [rbp-0x80]
    810b:	49 8b 47 28          	mov    rax,QWORD PTR [r15+0x28]
    810f:	49 89 45 28          	mov    QWORD PTR [r13+0x28],rax
    8113:	31 c0                	xor    eax,eax
    8115:	4c 89 75 98          	mov    QWORD PTR [rbp-0x68],r14
    8119:	41 8b 04 24          	mov    eax,DWORD PTR [r12]
    811d:	49 be 4d 64 e5 f7 ff 	movabs r14,0x7ffff7e5644d
    8124:	7f 00 00 
    8127:	49 ff c3             	inc    r11
    812a:	49 f7 c3 00 00 00 01 	test   r11,0x1000000
    8131:	0f 85 0e 0d 00 00    	jne    0x8e45
    8137:	a8 02                	test   al,0x2
    8139:	74 62                	je     0x819d
    813b:	49 be 51 64 e5 f7 ff 	movabs r14,0x7ffff7e56451
    8142:	7f 00 00 
    8145:	49 ff c3             	inc    r11
    8148:	49 f7 c3 00 00 00 01 	test   r11,0x1000000
    814f:	0f 85 f0 0c 00 00    	jne    0x8e45
    8155:	49 8b 45 28          	mov    rax,QWORD PTR [r13+0x28]
    8159:	4c 8b 75 80          	mov    r14,QWORD PTR [rbp-0x80]
    815d:	49 33 46 28          	xor    rax,QWORD PTR [r14+0x28]
    8161:	0f 85 78 02 00 00    	jne    0x83df
    8167:	49 83 c5 30          	add    r13,0x30
    816b:	31 c0                	xor    eax,eax
    816d:	49 8b 5d 00          	mov    rbx,QWORD PTR [r13+0x0]
    8171:	4d 8d 6d 08          	lea    r13,[r13+0x8]
    8175:	4d 8b 65 00          	mov    r12,QWORD PTR [r13+0x0]
    8179:	4d 8d 6d 08          	lea    r13,[r13+0x8]
    817d:	4c 8b 75 98          	mov    r14,QWORD PTR [rbp-0x68]
    8181:	4d 8b 75 00          	mov    r14,QWORD PTR [r13+0x0]
    8185:	4d 8d 6d 08          	lea    r13,[r13+0x8]
    8189:	4d 8b 7d 00          	mov    r15,QWORD PTR [r13+0x0]
    818d:	4d 8d 6d 08          	lea    r13,[r13+0x8]
    8191:	4c 89 75 98          	mov    QWORD PTR [rbp-0x68],r14
    8195:	4d 89 fe             	mov    r14,r15
    8198:	e9 72 09 00 00       	jmp    0x8b0f
    819d:	49 be 70 64 e5 f7 ff 	movabs r14,0x7ffff7e56470
    81a4:	7f 00 00 
    81a7:	49 ff c3             	inc    r11
    81aa:	49 f7 c3 00 00 00 01 	test   r11,0x1000000
    81b1:	0f 85 8e 0c 00 00    	jne    0x8e45
    81b7:	49 be 76 64 e5 f7 ff 	movabs r14,0x7ffff7e56476
    81be:	7f 00 00 
    81c1:	41 8b 96 ea 0f 01 00 	mov    edx,DWORD PTR [r14+0x10fea]
    81c8:	83 ca 01             	or     edx,0x1
    81cb:	f0 41 0f b1 14 24    	lock cmpxchg DWORD PTR [r12],edx
    81d1:	0f 85 46 ff ff ff    	jne    0x811d
    81d7:	49 be 80 64 e5 f7 ff 	movabs r14,0x7ffff7e56480
    81de:	7f 00 00 
    81e1:	49 ff c3             	inc    r11
    81e4:	49 f7 c3 00 00 00 01 	test   r11,0x1000000
    81eb:	0f 85 54 0c 00 00    	jne    0x8e45
    81f1:	39 c2                	cmp    edx,eax
    81f3:	0f 85 db 00 00 00    	jne    0x82d4
    81f9:	49 be 84 64 e5 f7 ff 	movabs r14,0x7ffff7e56484
    8200:	7f 00 00 
    8203:	49 ff c3             	inc    r11
    8206:	49 f7 c3 00 00 00 01 	test   r11,0x1000000
    820d:	0f 85 32 0c 00 00    	jne    0x8e45
    8213:	a8 01                	test   al,0x1
    8215:	0f 84 b9 00 00 00    	je     0x82d4
    821b:	45 31 d2             	xor    r10d,r10d
    821e:	be 80 00 00 00       	mov    esi,0x80
    8223:	4c 89 e7             	mov    rdi,r12
    8226:	44 89 c8             	mov    eax,r9d
    8229:	49 be 96 64 e5 f7 ff 	movabs r14,0x7ffff7e56496
    8230:	7f 00 00 
    8233:	e9 f2 0b 00 00       	jmp    0x8e2a
    8238:	49 be 98 64 e5 f7 ff 	movabs r14,0x7ffff7e56498
    823f:	7f 00 00 
    8242:	49 ff c3             	inc    r11
    8245:	49 f7 c3 00 00 00 01 	test   r11,0x1000000
    824c:	0f 85 f3 0b 00 00    	jne    0x8e45
    8252:	48 3d 00 f0 ff ff    	cmp    rax,0xfffffffffffff000
    8258:	0f 86 bb fe ff ff    	jbe    0x8119
    825e:	49 be a0 64 e5 f7 ff 	movabs r14,0x7ffff7e564a0
    8265:	7f 00 00 
    8268:	49 ff c3             	inc    r11
    826b:	49 f7 c3 00 00 00 01 	test   r11,0x1000000
    8272:	0f 85 cd 0b 00 00    	jne    0x8e45
    8278:	8d 48 0b             	lea    ecx,[rax+0xb]
    827b:	83 f9 0b             	cmp    ecx,0xb
    827e:	77 2b                	ja     0x82ab
    8280:	49 be a8 64 e5 f7 ff 	movabs r14,0x7ffff7e564a8
    8287:	7f 00 00 
    828a:	49 ff c3             	inc    r11
    828d:	49 f7 c3 00 00 00 01 	test   r11,0x1000000
    8294:	0f 85 ab 0b 00 00    	jne    0x8e45
    829a:	4c 89 c0             	mov    rax,r8
    829d:	48 d3 e0             	shl    rax,cl
    82a0:	a9 81 08 00 00       	test   eax,0x881
    82a5:	0f 85 6e fe ff ff    	jne    0x8119
    82ab:	49 be bc 64 e5 f7 ff 	movabs r14,0x7ffff7e564bc
    82b2:	7f 00 00 
    82b5:	49 8d be 44 5b 00 00 	lea    rdi,[r14+0x5b44]
    82bc:	49 be c1 64 e5 f7 ff 	movabs r14,0x7ffff7e564c1
    82c3:	7f 00 00 
    82c6:	4d 8d 6d f8          	lea    r13,[r13-0x8]
    82ca:	4d 89 75 00          	mov    QWORD PTR [r13+0x0],r14
    82ce:	e9 a9 09 00 00       	jmp    0x8c7c
    82d3:	90                   	nop
    82d4:	4c 8b 75 98          	mov    r14,QWORD PTR [rbp-0x68]
    82d8:	4d 89 ee             	mov    r14,r13
    82db:	4c 89 e2             	mov    rdx,r12
    82de:	49 bf d5 64 e5 f7 ff 	movabs r15,0x7ffff7e564d5
    82e5:	7f 00 00 
    82e8:	49 8d 77 5b          	lea    rsi,[r15+0x5b]
    82ec:	4c 89 f7             	mov    rdi,r14
    82ef:	49 bf dd 64 e5 f7 ff 	movabs r15,0x7ffff7e564dd
    82f6:	7f 00 00 
    82f9:	4d 8d 6d f8          	lea    r13,[r13-0x8]
    82fd:	4d 89 7d 00          	mov    QWORD PTR [r13+0x0],r15
    8301:	4c 89 75 98          	mov    QWORD PTR [rbp-0x68],r14
    8305:	e9 90 0a 00 00       	jmp    0x8d9a
    830a:	49 be df 64 e5 f7 ff 	movabs r14,0x7ffff7e564df
    8311:	7f 00 00 
    8314:	4d 8d 6d f8          	lea    r13,[r13-0x8]
    8318:	4d 89 75 00          	mov    QWORD PTR [r13+0x0],r14
    831c:	49 89 de             	mov    r14,rbx
    831f:	e9 fa 07 00 00       	jmp    0x8b1e
    8324:	31 f6                	xor    esi,esi
    8326:	4c 8b 75 98          	mov    r14,QWORD PTR [rbp-0x68]
    832a:	4c 89 f7             	mov    rdi,r14
    832d:	49 bf e9 64 e5 f7 ff 	movabs r15,0x7ffff7e564e9
    8334:	7f 00 00 
    8337:	4d 8d 6d f8          	lea    r13,[r13-0x8]
    833b:	4d 89 7d 00          	mov    QWORD PTR [r13+0x0],r15
    833f:	4c 89 75 98          	mov    QWORD PTR [rbp-0x68],r14
    8343:	e9 64 08 00 00       	jmp    0x8bac
    8348:	45 31 d2             	xor    r10d,r10d
    834b:	ba ff ff ff 7f       	mov    edx,0x7fffffff
    8350:	4c 89 e7             	mov    rdi,r12
    8353:	be 81 00 00 00       	mov    esi,0x81
    8358:	b8 ca 00 00 00       	mov    eax,0xca
    835d:	41 c7 04 24 02 00 00 	mov    DWORD PTR [r12],0x2
    8364:	00 
    8365:	49 be 05 65 e5 f7 ff 	movabs r14,0x7ffff7e56505
    836c:	7f 00 00 
    836f:	e9 b6 0a 00 00       	jmp    0x8e2a
    8374:	49 be 07 65 e5 f7 ff 	movabs r14,0x7ffff7e56507
    837b:	7f 00 00 
    837e:	49 ff c3             	inc    r11
    8381:	49 f7 c3 00 00 00 01 	test   r11,0x1000000
    8388:	0f 85 b7 0a 00 00    	jne    0x8e45
    838e:	48 3d 00 f0 ff ff    	cmp    rax,0xfffffffffffff000
    8394:	0f 86 a1 fd ff ff    	jbe    0x813b
    839a:	49 be 13 65 e5 f7 ff 	movabs r14,0x7ffff7e56513
    83a1:	7f 00 00 
    83a4:	49 ff c3             	inc    r11
    83a7:	49 f7 c3 00 00 00 01 	test   r11,0x1000000
    83ae:	0f 85 91 0a 00 00    	jne    0x8e45
    83b4:	83 c0 16             	add    eax,0x16
    83b7:	83 e0 f7             	and    eax,0xfffffff7
    83ba:	0f 85 eb fe ff ff    	jne    0x82ab
    83c0:	49 be 1b 65 e5 f7 ff 	movabs r14,0x7ffff7e5651b
    83c7:	7f 00 00 
    83ca:	49 ff c3             	inc    r11
    83cd:	49 f7 c3 00 00 00 01 	test   r11,0x1000000
    83d4:	0f 85 6b 0a 00 00    	jne    0x8e45
    83da:	e9 5c fd ff ff       	jmp    0x813b
    83df:	49 be 25 65 e5 f7 ff 	movabs r14,0x7ffff7e56525
    83e6:	7f 00 00 
    83e9:	4d 8d 6d f8          	lea    r13,[r13-0x8]
    83ed:	4d 89 75 00          	mov    QWORD PTR [r13+0x0],r14
    83f1:	e9 56 09 00 00       	jmp    0x8d4c
    83f6:	90                   	nop
    83f7:	90                   	nop
    83f8:	c7 07 00 00 00 00    	mov    DWORD PTR [rdi],0x0
    83fe:	45 31 d2             	xor    r10d,r10d
    8401:	ba ff ff ff 7f       	mov    edx,0x7fffffff
    8406:	be 81 00 00 00       	mov    esi,0x81
    840b:	b8 ca 00 00 00       	mov    eax,0xca
    8410:	49 be 4c 65 e5 f7 ff 	movabs r14,0x7ffff7e5654c
    8417:	7f 00 00 
    841a:	e9 0b 0a 00 00       	jmp    0x8e2a
    841f:	49 be 4e 65 e5 f7 ff 	movabs r14,0x7ffff7e5654e
    8426:	7f 00 00 
    8429:	49 ff c3             	inc    r11
    842c:	49 f7 c3 00 00 00 01 	test   r11,0x1000000
    8433:	0f 85 0c 0a 00 00    	jne    0x8e45
    8439:	48 3d 00 f0 ff ff    	cmp    rax,0xfffffffffffff000
    843f:	77 0d                	ja     0x844e
    8441:	4d 8b 75 00          	mov    r14,QWORD PTR [r13+0x0]
    8445:	4d 8d 6d 08          	lea    r13,[r13+0x8]
    8449:	e9 df 06 00 00       	jmp    0x8b2d
    844e:	49 be 60 65 e5 f7 ff 	movabs r14,0x7ffff7e56560
    8455:	7f 00 00 
    8458:	49 ff c3             	inc    r11
    845b:	49 f7 c3 00 00 00 01 	test   r11,0x1000000
    8462:	0f 85 dd 09 00 00    	jne    0x8e45
    8468:	83 c0 16             	add    eax,0x16
    846b:	83 e0 f7             	and    eax,0xfffffff7
    846e:	74 d1                	je     0x8441
    8470:	4d 8d 6d f8          	lea    r13,[r13-0x8]
    8474:	49 89 45 00          	mov    QWORD PTR [r13+0x0],rax
    8478:	49 be 70 65 e5 f7 ff 	movabs r14,0x7ffff7e56570
    847f:	7f 00 00 
    8482:	49 8d be 90 5a 00 00 	lea    rdi,[r14+0x5a90]
    8489:	49 be 75 65 e5 f7 ff 	movabs r14,0x7ffff7e56575
    8490:	7f 00 00 
    8493:	4d 8d 6d f8          	lea    r13,[r13-0x8]
    8497:	4d 89 75 00          	mov    QWORD PTR [r13+0x0],r14
    849b:	e9 dc 07 00 00       	jmp    0x8c7c
    84a0:	49 be 75 65 e5 f7 ff 	movabs r14,0x7ffff7e56575
    84a7:	7f 00 00 
    84aa:	49 ff c3             	inc    r11
    84ad:	49 f7 c3 00 00 00 01 	test   r11,0x1000000
    84b4:	0f 85 8b 09 00 00    	jne    0x8e45
    84ba:	90                   	nop
    84bb:	90                   	nop
    84bc:	8b 07                	mov    eax,DWORD PTR [rdi]
    84be:	a8 02                	test   al,0x2
    84c0:	74 0f                	je     0x84d1
    84c2:	31 c0                	xor    eax,eax
    84c4:	4d 8b 75 00          	mov    r14,QWORD PTR [r13+0x0]
    84c8:	4d 8d 6d 08          	lea    r13,[r13+0x8]
    84cc:	e9 6b 06 00 00       	jmp    0x8b3c
    84d1:	49 be 90 65 e5 f7 ff 	movabs r14,0x7ffff7e56590
    84d8:	7f 00 00 
    84db:	49 ff c3             	inc    r11
    84de:	49 f7 c3 00 00 00 01 	test   r11,0x1000000
    84e5:	0f 85 5a 09 00 00    	jne    0x8e45
    84eb:	e9 e5 fb ff ff       	jmp    0x80d5
    84f0:	49 be 4e 81 e5 f7 ff 	movabs r14,0x7ffff7e5814e
    84f7:	7f 00 00 
    84fa:	49 ff c3             	inc    r11
    84fd:	49 f7 c3 00 00 00 01 	test   r11,0x1000000
    8504:	0f 85 3b 09 00 00    	jne    0x8e45
    850a:	b8 02 00 00 00       	mov    eax,0x2
    850f:	87 07                	xchg   DWORD PTR [rdi],eax
    8511:	85 c0                	test   eax,eax
    8513:	74 40                	je     0x8555
    8515:	90                   	nop
    8516:	44 89 c6             	mov    esi,r8d
    8519:	45 31 d2             	xor    r10d,r10d
    851c:	ba 02 00 00 00       	mov    edx,0x2
    8521:	b8 ca 00 00 00       	mov    eax,0xca
    8526:	40 80 f6 80          	xor    sil,0x80
    852a:	49 be 6e 81 e5 f7 ff 	movabs r14,0x7ffff7e5816e
    8531:	7f 00 00 
    8534:	e9 f1 08 00 00       	jmp    0x8e2a
    8539:	49 be 70 81 e5 f7 ff 	movabs r14,0x7ffff7e58170
    8540:	7f 00 00 
    8543:	49 ff c3             	inc    r11
    8546:	49 f7 c3 00 00 00 01 	test   r11,0x1000000
    854d:	0f 85 f2 08 00 00    	jne    0x8e45
    8553:	eb 9b                	jmp    0x84f0
    8555:	4d 8b 75 00          	mov    r14,QWORD PTR [r13+0x0]
    8559:	4d 8d 6d 08          	lea    r13,[r13+0x8]
    855d:	e9 5e 02 00 00       	jmp    0x87c0
    8562:	49 be 80 b3 e5 f7 ff 	movabs r14,0x7ffff7e5b380
    8569:	7f 00 00 
    856c:	49 ff c3             	inc    r11
    856f:	49 f7 c3 00 00 00 01 	test   r11,0x1000000
    8576:	0f 85 c9 08 00 00    	jne    0x8e45
    857c:	90                   	nop
    857d:	8b 07                	mov    eax,DWORD PTR [rdi]
    857f:	85 c0                	test   eax,eax
    8581:	75 0f                	jne    0x8592
    8583:	31 c0                	xor    eax,eax
    8585:	4d 8b 75 00          	mov    r14,QWORD PTR [r13+0x0]
    8589:	4d 8d 6d 08          	lea    r13,[r13+0x8]
    858d:	e9 ca 03 00 00       	jmp    0x895c
    8592:	49 be 90 b3 e5 f7 ff 	movabs r14,0x7ffff7e5b390
    8599:	7f 00 00 
    859c:	49 ff c3             	inc    r11
    859f:	49 f7 c3 00 00 00 01 	test   r11,0x1000000
    85a6:	0f 85 99 08 00 00    	jne    0x8e45
    85ac:	31 c0                	xor    eax,eax
    85ae:	87 07                	xchg   DWORD PTR [rdi],eax
    85b0:	83 f8 01             	cmp    eax,0x1
    85b3:	7e ce                	jle    0x8583
    85b5:	40 80 f6 81          	xor    sil,0x81
    85b9:	45 31 d2             	xor    r10d,r10d
    85bc:	ba 01 00 00 00       	mov    edx,0x1
    85c1:	b8 ca 00 00 00       	mov    eax,0xca
    85c6:	49 be aa b3 e5 f7 ff 	movabs r14,0x7ffff7e5b3aa
    85cd:	7f 00 00 
    85d0:	e9 55 08 00 00       	jmp    0x8e2a
    85d5:	49 be ac b3 e5 f7 ff 	movabs r14,0x7ffff7e5b3ac
    85dc:	7f 00 00 
    85df:	49 ff c3             	inc    r11
    85e2:	49 f7 c3 00 00 00 01 	test   r11,0x1000000
    85e9:	0f 85 56 08 00 00    	jne    0x8e45
    85ef:	eb 92                	jmp    0x8583
    85f1:	49 bf c0 a4 55 55 55 	movabs r15,0x55555555a4c0
    85f8:	55 00 00 
    85fb:	4d 39 fe             	cmp    r14,r15
    85fe:	0f 84 39 97 ff ff    	je     0x1d3d
    8604:	49 bf e6 a1 55 55 55 	movabs r15,0x55555555a1e6
    860b:	55 00 00 
    860e:	4d 39 fe             	cmp    r14,r15
    8611:	0f 84 9b 90 ff ff    	je     0x16b2
    8617:	49 bf 76 73 55 55 55 	movabs r15,0x555555557376
    861e:	55 00 00 
    8621:	4d 39 fe             	cmp    r14,r15
    8624:	0f 84 4d 81 ff ff    	je     0x777
    862a:	49 bf 57 71 55 55 55 	movabs r15,0x555555557157
    8631:	55 00 00 
    8634:	4d 39 fe             	cmp    r14,r15
    8637:	0f 84 85 7c ff ff    	je     0x2c2
    863d:	49 bf 1b 75 55 55 55 	movabs r15,0x55555555751b
    8644:	55 00 00 
    8647:	4d 39 fe             	cmp    r14,r15
    864a:	0f 84 f8 84 ff ff    	je     0xb48
    8650:	49 bf 8f 42 e5 f7 ff 	movabs r15,0x7ffff7e5428f
    8657:	7f 00 00 
    865a:	e9 d8 07 00 00       	jmp    0x8e37
    865f:	49 bf 8e 84 55 55 55 	movabs r15,0x55555555848e
    8666:	55 00 00 
    8669:	4d 39 fe             	cmp    r14,r15
    866c:	0f 84 ab 87 ff ff    	je     0xe1d
    8672:	49 bf 30 86 55 55 55 	movabs r15,0x555555558630
    8679:	55 00 00 
    867c:	4d 39 fe             	cmp    r14,r15
    867f:	0f 84 ac 8a ff ff    	je     0x1131
    8685:	49 bf b1 70 55 55 55 	movabs r15,0x5555555570b1
    868c:	55 00 00 
    868f:	4d 39 fe             	cmp    r14,r15
    8692:	0f 84 aa 7a ff ff    	je     0x142
    8698:	49 bf 16 a4 55 55 55 	movabs r15,0x55555555a416
    869f:	55 00 00 
    86a2:	4d 39 fe             	cmp    r14,r15
    86a5:	0f 84 12 95 ff ff    	je     0x1bbd
    86ab:	49 bf d9 72 55 55 55 	movabs r15,0x5555555572d9
    86b2:	55 00 00 
    86b5:	4d 39 fe             	cmp    r14,r15
    86b8:	0f 84 42 7f ff ff    	je     0x600
    86be:	49 bf 3c a1 55 55 55 	movabs r15,0x55555555a13c
    86c5:	55 00 00 
    86c8:	4d 39 fe             	cmp    r14,r15
    86cb:	0f 84 61 8e ff ff    	je     0x1532
    86d1:	49 bf 7e 74 55 55 55 	movabs r15,0x55555555747e
    86d8:	55 00 00 
    86db:	4d 39 fe             	cmp    r14,r15
    86de:	0f 84 ed 82 ff ff    	je     0x9d1
    86e4:	49 bf 1c 00 e5 f7 ff 	movabs r15,0x7ffff7e5001c
    86eb:	7f 00 00 
    86ee:	e9 44 07 00 00       	jmp    0x8e37
    86f3:	49 bf 04 a5 55 55 55 	movabs r15,0x55555555a504
    86fa:	55 00 00 
    86fd:	4d 39 fe             	cmp    r14,r15
    8700:	0f 84 ef 96 ff ff    	je     0x1df5
    8706:	49 bf 98 71 55 55 55 	movabs r15,0x555555557198
    870d:	55 00 00 
    8710:	4d 39 fe             	cmp    r14,r15
    8713:	0f 84 5e 7c ff ff    	je     0x377
    8719:	49 bf 2a a2 55 55 55 	movabs r15,0x55555555a22a
    8720:	55 00 00 
    8723:	4d 39 fe             	cmp    r14,r15
    8726:	0f 84 3e 90 ff ff    	je     0x176a
    872c:	49 bf 4e 73 55 55 55 	movabs r15,0x55555555734e
    8733:	55 00 00 
    8736:	4d 39 fe             	cmp    r14,r15
    8739:	0f 84 d0 7f ff ff    	je     0x70f
    873f:	49 bf 2f 71 55 55 55 	movabs r15,0x55555555712f
    8746:	55 00 00 
    8749:	4d 39 fe             	cmp    r14,r15
    874c:	0f 84 08 7b ff ff    	je     0x25a
    8752:	49 bf ae 73 55 55 55 	movabs r15,0x5555555573ae
    8759:	55 00 00 
    875c:	4d 39 fe             	cmp    r14,r15
    875f:	0f 84 be 80 ff ff    	je     0x823
    8765:	49 bf f3 74 55 55 55 	movabs r15,0x5555555574f3
    876c:	55 00 00 
    876f:	4d 39 fe             	cmp    r14,r15
    8772:	0f 84 68 83 ff ff    	je     0xae0
    8778:	49 bf 56 75 55 55 55 	movabs r15,0x555555557556
    877f:	55 00 00 
    8782:	4d 39 fe             	cmp    r14,r15
    8785:	0f 84 6c 84 ff ff    	je     0xbf7
    878b:	49 bf 98 a4 55 55 55 	movabs r15,0x55555555a498
    8792:	55 00 00 
    8795:	4d 39 fe             	cmp    r14,r15
    8798:	0f 84 37 95 ff ff    	je     0x1cd5
    879e:	49 bf be a1 55 55 55 	movabs r15,0x55555555a1be
    87a5:	55 00 00 
    87a8:	4d 39 fe             	cmp    r14,r15
    87ab:	0f 84 99 8e ff ff    	je     0x164a
    87b1:	49 bf 1f 62 e5 f7 ff 	movabs r15,0x7ffff7e5621f
    87b8:	7f 00 00 
    87bb:	e9 77 06 00 00       	jmp    0x8e37
    87c0:	49 bf 7b 20 e5 f7 ff 	movabs r15,0x7ffff7e5207b
    87c7:	7f 00 00 
    87ca:	4d 39 fe             	cmp    r14,r15
    87cd:	0f 84 50 b9 ff ff    	je     0x4123
    87d3:	49 bf a3 00 e5 f7 ff 	movabs r15,0x7ffff7e500a3
    87da:	7f 00 00 
    87dd:	4d 39 fe             	cmp    r14,r15
    87e0:	0f 84 2f 9b ff ff    	je     0x2315
    87e6:	49 bf 79 81 e5 f7 ff 	movabs r15,0x7ffff7e58179
    87ed:	7f 00 00 
    87f0:	e9 42 06 00 00       	jmp    0x8e37
    87f5:	49 bf 60 42 e5 f7 ff 	movabs r15,0x7ffff7e54260
    87fc:	7f 00 00 
    87ff:	4d 39 fe             	cmp    r14,r15
    8802:	0f 84 b3 c0 ff ff    	je     0x48bb
    8808:	49 bf 08 46 e5 f7 ff 	movabs r15,0x7ffff7e54608
    880f:	7f 00 00 
    8812:	4d 39 fe             	cmp    r14,r15
    8815:	0f 84 ba c9 ff ff    	je     0x51d5
    881b:	49 bf eb 4a e5 f7 ff 	movabs r15,0x7ffff7e54aeb
    8822:	7f 00 00 
    8825:	4d 39 fe             	cmp    r14,r15
    8828:	0f 84 d7 d5 ff ff    	je     0x5e05
    882e:	49 bf dd 41 e5 f7 ff 	movabs r15,0x7ffff7e541dd
    8835:	7f 00 00 
    8838:	4d 39 fe             	cmp    r14,r15
    883b:	0f 84 1b bf ff ff    	je     0x475c
    8841:	49 bf 28 20 e5 f7 ff 	movabs r15,0x7ffff7e52028
    8848:	7f 00 00 
    884b:	e9 e7 05 00 00       	jmp    0x8e37
    8850:	49 bf 90 52 e5 f7 ff 	movabs r15,0x7ffff7e55290
    8857:	7f 00 00 
    885a:	4d 39 fe             	cmp    r14,r15
    885d:	0f 84 12 e9 ff ff    	je     0x7175
    8863:	49 bf 8b 63 55 55 55 	movabs r15,0x55555555638b
    886a:	55 00 00 
    886d:	e9 c5 05 00 00       	jmp    0x8e37
    8872:	49 bf b0 17 e5 f7 ff 	movabs r15,0x7ffff7e517b0
    8879:	7f 00 00 
    887c:	4d 39 fe             	cmp    r14,r15
    887f:	0f 84 00 a2 ff ff    	je     0x2a85
    8885:	49 bf bb 64 55 55 55 	movabs r15,0x5555555564bb
    888c:	55 00 00 
    888f:	e9 a3 05 00 00       	jmp    0x8e37
    8894:	49 bf 60 41 e5 f7 ff 	movabs r15,0x7ffff7e54160
    889b:	7f 00 00 
    889e:	4d 39 fe             	cmp    r14,r15
    88a1:	0f 84 99 bd ff ff    	je     0x4640
    88a7:	49 bf bb 63 55 55 55 	movabs r15,0x5555555563bb
    88ae:	55 00 00 
    88b1:	e9 81 05 00 00       	jmp    0x8e37
    88b6:	49 bf b0 61 e5 f7 ff 	movabs r15,0x7ffff7e561b0
    88bd:	7f 00 00 
    88c0:	4d 39 fe             	cmp    r14,r15
    88c3:	0f 84 0d f2 ff ff    	je     0x7ad6
    88c9:	49 bf fb 63 55 55 55 	movabs r15,0x5555555563fb
    88d0:	55 00 00 
    88d3:	e9 5f 05 00 00       	jmp    0x8e37
    88d8:	49 bf 12 a7 55 55 55 	movabs r15,0x55555555a712
    88df:	55 00 00 
    88e2:	e9 50 05 00 00       	jmp    0x8e37
    88e7:	49 bf d2 87 55 55 55 	movabs r15,0x5555555587d2
    88ee:	55 00 00 
    88f1:	e9 41 05 00 00       	jmp    0x8e37
    88f6:	49 bf d6 75 55 55 55 	movabs r15,0x5555555575d6
    88fd:	55 00 00 
    8900:	e9 32 05 00 00       	jmp    0x8e37
    8905:	49 bf 08 46 e5 f7 ff 	movabs r15,0x7ffff7e54608
    890c:	7f 00 00 
    890f:	4d 39 fe             	cmp    r14,r15
    8912:	0f 84 bd c8 ff ff    	je     0x51d5
    8918:	49 bf eb 4a e5 f7 ff 	movabs r15,0x7ffff7e54aeb
    891f:	7f 00 00 
    8922:	4d 39 fe             	cmp    r14,r15
    8925:	0f 84 da d4 ff ff    	je     0x5e05
    892b:	49 bf dd 41 e5 f7 ff 	movabs r15,0x7ffff7e541dd
    8932:	7f 00 00 
    8935:	4d 39 fe             	cmp    r14,r15
    8938:	0f 84 1e be ff ff    	je     0x475c
    893e:	49 bf 26 13 e5 f7 ff 	movabs r15,0x7ffff7e51326
    8945:	7f 00 00 
    8948:	e9 ea 04 00 00       	jmp    0x8e37
    894d:	49 bf 1f 13 e5 f7 ff 	movabs r15,0x7ffff7e5131f
    8954:	7f 00 00 
    8957:	e9 db 04 00 00       	jmp    0x8e37
    895c:	49 bf 08 46 e5 f7 ff 	movabs r15,0x7ffff7e54608
    8963:	7f 00 00 
    8966:	4d 39 fe             	cmp    r14,r15
    8969:	0f 84 66 c8 ff ff    	je     0x51d5
    896f:	49 bf eb 4a e5 f7 ff 	movabs r15,0x7ffff7e54aeb
    8976:	7f 00 00 
    8979:	4d 39 fe             	cmp    r14,r15
    897c:	0f 84 83 d4 ff ff    	je     0x5e05
    8982:	49 bf dd 41 e5 f7 ff 	movabs r15,0x7ffff7e541dd
    8989:	7f 00 00 
    898c:	4d 39 fe             	cmp    r14,r15
    898f:	0f 84 c7 bd ff ff    	je     0x475c
    8995:	49 bf 90 b3 e5 f7 ff 	movabs r15,0x7ffff7e5b390
    899c:	7f 00 00 
    899f:	e9 93 04 00 00       	jmp    0x8e37
    89a4:	49 bf 08 46 e5 f7 ff 	movabs r15,0x7ffff7e54608
    89ab:	7f 00 00 
    89ae:	4d 39 fe             	cmp    r14,r15
    89b1:	0f 84 1e c8 ff ff    	je     0x51d5
    89b7:	49 bf eb 4a e5 f7 ff 	movabs r15,0x7ffff7e54aeb
    89be:	7f 00 00 
    89c1:	4d 39 fe             	cmp    r14,r15
    89c4:	0f 84 3b d4 ff ff    	je     0x5e05
    89ca:	49 bf dd 41 e5 f7 ff 	movabs r15,0x7ffff7e541dd
    89d1:	7f 00 00 
    89d4:	4d 39 fe             	cmp    r14,r15
    89d7:	0f 84 7f bd ff ff    	je     0x475c
    89dd:	49 bf e3 19 e5 f7 ff 	movabs r15,0x7ffff7e519e3
    89e4:	7f 00 00 
    89e7:	e9 4b 04 00 00       	jmp    0x8e37
    89ec:	49 bf 74 1e e5 f7 ff 	movabs r15,0x7ffff7e51e74
    89f3:	7f 00 00 
    89f6:	e9 3c 04 00 00       	jmp    0x8e37
    89fb:	49 bf a5 1f e5 f7 ff 	movabs r15,0x7ffff7e51fa5
    8a02:	7f 00 00 
    8a05:	e9 2d 04 00 00       	jmp    0x8e37
    8a0a:	49 bf 08 46 e5 f7 ff 	movabs r15,0x7ffff7e54608
    8a11:	7f 00 00 
    8a14:	4d 39 fe             	cmp    r14,r15
    8a17:	0f 84 b8 c7 ff ff    	je     0x51d5
    8a1d:	49 bf eb 4a e5 f7 ff 	movabs r15,0x7ffff7e54aeb
    8a24:	7f 00 00 
    8a27:	4d 39 fe             	cmp    r14,r15
    8a2a:	0f 84 d5 d3 ff ff    	je     0x5e05
    8a30:	49 bf dd 41 e5 f7 ff 	movabs r15,0x7ffff7e541dd
    8a37:	7f 00 00 
    8a3a:	4d 39 fe             	cmp    r14,r15
    8a3d:	0f 84 19 bd ff ff    	je     0x475c
    8a43:	49 bf e7 17 e5 f7 ff 	movabs r15,0x7ffff7e517e7
    8a4a:	7f 00 00 
    8a4d:	e9 e5 03 00 00       	jmp    0x8e37
    8a52:	49 bf 23 47 e5 f7 ff 	movabs r15,0x7ffff7e54723
    8a59:	7f 00 00 
    8a5c:	4d 39 fe             	cmp    r14,r15
    8a5f:	0f 84 8d ca ff ff    	je     0x54f2
    8a65:	49 bf 59 4d e5 f7 ff 	movabs r15,0x7ffff7e54d59
    8a6c:	7f 00 00 
    8a6f:	4d 39 fe             	cmp    r14,r15
    8a72:	0f 84 87 d9 ff ff    	je     0x63ff
    8a78:	49 bf e3 42 e5 f7 ff 	movabs r15,0x7ffff7e542e3
    8a7f:	7f 00 00 
    8a82:	4d 39 fe             	cmp    r14,r15
    8a85:	0f 84 d8 bf ff ff    	je     0x4a63
    8a8b:	49 bf b6 54 e5 f7 ff 	movabs r15,0x7ffff7e554b6
    8a92:	7f 00 00 
    8a95:	e9 9d 03 00 00       	jmp    0x8e37
    8a9a:	49 bf 08 46 e5 f7 ff 	movabs r15,0x7ffff7e54608
    8aa1:	7f 00 00 
    8aa4:	4d 39 fe             	cmp    r14,r15
    8aa7:	0f 84 28 c7 ff ff    	je     0x51d5
    8aad:	49 bf eb 4a e5 f7 ff 	movabs r15,0x7ffff7e54aeb
    8ab4:	7f 00 00 
    8ab7:	4d 39 fe             	cmp    r14,r15
    8aba:	0f 84 45 d3 ff ff    	je     0x5e05
    8ac0:	49 bf dd 41 e5 f7 ff 	movabs r15,0x7ffff7e541dd
    8ac7:	7f 00 00 
    8aca:	4d 39 fe             	cmp    r14,r15
    8acd:	0f 84 89 bc ff ff    	je     0x475c
    8ad3:	49 bf d7 16 e5 f7 ff 	movabs r15,0x7ffff7e516d7
    8ada:	7f 00 00 
    8add:	e9 55 03 00 00       	jmp    0x8e37
    8ae2:	49 bf 56 62 e5 f7 ff 	movabs r15,0x7ffff7e56256
    8ae9:	7f 00 00 
    8aec:	e9 46 03 00 00       	jmp    0x8e37
    8af1:	49 bf 8e 63 e5 f7 ff 	movabs r15,0x7ffff7e5638e
    8af8:	7f 00 00 
    8afb:	e9 37 03 00 00       	jmp    0x8e37
    8b00:	49 bf 51 63 e5 f7 ff 	movabs r15,0x7ffff7e56351
    8b07:	7f 00 00 
    8b0a:	e9 28 03 00 00       	jmp    0x8e37
    8b0f:	49 bf 70 64 e5 f7 ff 	movabs r15,0x7ffff7e56470
    8b16:	7f 00 00 
    8b19:	e9 19 03 00 00       	jmp    0x8e37
    8b1e:	49 bf df 64 e5 f7 ff 	movabs r15,0x7ffff7e564df
    8b25:	7f 00 00 
    8b28:	e9 0a 03 00 00       	jmp    0x8e37
    8b2d:	49 bf 57 65 e5 f7 ff 	movabs r15,0x7ffff7e56557
    8b34:	7f 00 00 
    8b37:	e9 fb 02 00 00       	jmp    0x8e37
    8b3c:	49 bf 8d 65 e5 f7 ff 	movabs r15,0x7ffff7e5658d
    8b43:	7f 00 00 
    8b46:	e9 ec 02 00 00       	jmp    0x8e37
    8b4b:	49 bf d0 46 e5 f7 ff 	movabs r15,0x7ffff7e546d0
    8b52:	7f 00 00 
    8b55:	e9 dd 02 00 00       	jmp    0x8e37
    8b5a:	49 bf da 4b e5 f7 ff 	movabs r15,0x7ffff7e54bda
    8b61:	7f 00 00 
    8b64:	e9 ce 02 00 00       	jmp    0x8e37
    8b69:	49 bf 49 50 e5 f7 ff 	movabs r15,0x7ffff7e55049
    8b70:	7f 00 00 
    8b73:	e9 bf 02 00 00       	jmp    0x8e37
    8b78:	49 be 00 9e e5 f7 ff 	movabs r14,0x7ffff7e59e00
    8b7f:	7f 00 00 
    8b82:	48 c7 85 70 ff ff ff 	mov    QWORD PTR [rbp-0x90],0x1
    8b89:	01 00 00 00 
    8b8d:	e9 c0 02 00 00       	jmp    0x8e52
    8b92:	49 be 80 81 e5 f7 ff 	movabs r14,0x7ffff7e58180
    8b99:	7f 00 00 
    8b9c:	48 c7 85 70 ff ff ff 	mov    QWORD PTR [rbp-0x90],0x1
    8ba3:	01 00 00 00 
    8ba7:	e9 a6 02 00 00       	jmp    0x8e52
    8bac:	49 be 80 7c e5 f7 ff 	movabs r14,0x7ffff7e57c80
    8bb3:	7f 00 00 
    8bb6:	48 c7 85 70 ff ff ff 	mov    QWORD PTR [rbp-0x90],0x1
    8bbd:	01 00 00 00 
    8bc1:	e9 8c 02 00 00       	jmp    0x8e52
    8bc6:	49 be 90 63 55 55 55 	movabs r14,0x555555556390
    8bcd:	55 00 00 
    8bd0:	48 c7 85 70 ff ff ff 	mov    QWORD PTR [rbp-0x90],0x1
    8bd7:	01 00 00 00 
    8bdb:	e9 72 02 00 00       	jmp    0x8e52
    8be0:	49 be 10 a2 e5 f7 ff 	movabs r14,0x7ffff7e5a210
    8be7:	7f 00 00 
    8bea:	48 c7 85 70 ff ff ff 	mov    QWORD PTR [rbp-0x90],0x1
    8bf1:	01 00 00 00 
    8bf5:	e9 58 02 00 00       	jmp    0x8e52
    8bfa:	49 be 13 13 56 55 55 	movabs r14,0x555555561313
    8c01:	55 00 00 
    8c04:	48 c7 85 70 ff ff ff 	mov    QWORD PTR [rbp-0x90],0x1
    8c0b:	01 00 00 00 
    8c0f:	e9 3e 02 00 00       	jmp    0x8e52
    8c14:	49 be 9a b1 55 55 55 	movabs r14,0x55555555b19a
    8c1b:	55 00 00 
    8c1e:	48 c7 85 70 ff ff ff 	mov    QWORD PTR [rbp-0x90],0x1
    8c25:	01 00 00 00 
    8c29:	e9 24 02 00 00       	jmp    0x8e52
    8c2e:	49 be a0 65 55 55 55 	movabs r14,0x5555555565a0
    8c35:	55 00 00 
    8c38:	48 c7 85 70 ff ff ff 	mov    QWORD PTR [rbp-0x90],0x1
    8c3f:	01 00 00 00 
    8c43:	e9 0a 02 00 00       	jmp    0x8e52
    8c48:	49 be 20 7f e5 f7 ff 	movabs r14,0x7ffff7e57f20
    8c4f:	7f 00 00 
    8c52:	48 c7 85 70 ff ff ff 	mov    QWORD PTR [rbp-0x90],0x1
    8c59:	01 00 00 00 
    8c5d:	e9 f0 01 00 00       	jmp    0x8e52
    8c62:	49 be a0 80 e5 f7 ff 	movabs r14,0x7ffff7e580a0
    8c69:	7f 00 00 
    8c6c:	48 c7 85 70 ff ff ff 	mov    QWORD PTR [rbp-0x90],0x1
    8c73:	01 00 00 00 
    8c77:	e9 d6 01 00 00       	jmp    0x8e52
    8c7c:	49 be 30 b6 e4 f7 ff 	movabs r14,0x7ffff7e4b630
    8c83:	7f 00 00 
    8c86:	48 c7 85 70 ff ff ff 	mov    QWORD PTR [rbp-0x90],0x1
    8c8d:	01 00 00 00 
    8c91:	e9 bc 01 00 00       	jmp    0x8e52
    8c96:	49 be b0 65 55 55 55 	movabs r14,0x5555555565b0
    8c9d:	55 00 00 
    8ca0:	48 c7 85 70 ff ff ff 	mov    QWORD PTR [rbp-0x90],0x1
    8ca7:	01 00 00 00 
    8cab:	e9 a2 01 00 00       	jmp    0x8e52
    8cb0:	49 be 30 64 55 55 55 	movabs r14,0x555555556430
    8cb7:	55 00 00 
    8cba:	48 c7 85 70 ff ff ff 	mov    QWORD PTR [rbp-0x90],0x1
    8cc1:	01 00 00 00 
    8cc5:	e9 88 01 00 00       	jmp    0x8e52
    8cca:	49 be b1 0d 56 55 55 	movabs r14,0x555555560db1
    8cd1:	55 00 00 
    8cd4:	48 c7 85 70 ff ff ff 	mov    QWORD PTR [rbp-0x90],0x1
    8cdb:	01 00 00 00 
    8cdf:	e9 6e 01 00 00       	jmp    0x8e52
    8ce4:	49 be 30 b7 e4 f7 ff 	movabs r14,0x7ffff7e4b730
    8ceb:	7f 00 00 
    8cee:	48 c7 85 70 ff ff ff 	mov    QWORD PTR [rbp-0x90],0x1
    8cf5:	01 00 00 00 
    8cf9:	e9 54 01 00 00       	jmp    0x8e52
    8cfe:	49 be bc 94 55 55 55 	movabs r14,0x5555555594bc
    8d05:	55 00 00 
    8d08:	48 c7 85 70 ff ff ff 	mov    QWORD PTR [rbp-0x90],0x1
    8d0f:	01 00 00 00 
    8d13:	e9 3a 01 00 00       	jmp    0x8e52
    8d18:	49 be 40 81 e5 f7 ff 	movabs r14,0x7ffff7e58140
    8d1f:	7f 00 00 
    8d22:	48 c7 85 70 ff ff ff 	mov    QWORD PTR [rbp-0x90],0x1
    8d29:	01 00 00 00 
    8d2d:	e9 20 01 00 00       	jmp    0x8e52
    8d32:	49 be 40 80 e5 f7 ff 	movabs r14,0x7ffff7e58040
    8d39:	7f 00 00 
    8d3c:	48 c7 85 70 ff ff ff 	mov    QWORD PTR [rbp-0x90],0x1
    8d43:	01 00 00 00 
    8d47:	e9 06 01 00 00       	jmp    0x8e52
    8d4c:	49 be d0 b6 e4 f7 ff 	movabs r14,0x7ffff7e4b6d0
    8d53:	7f 00 00 
    8d56:	48 c7 85 70 ff ff ff 	mov    QWORD PTR [rbp-0x90],0x1
    8d5d:	01 00 00 00 
    8d61:	e9 ec 00 00 00       	jmp    0x8e52
    8d66:	49 be d0 63 55 55 55 	movabs r14,0x5555555563d0
    8d6d:	55 00 00 
    8d70:	48 c7 85 70 ff ff ff 	mov    QWORD PTR [rbp-0x90],0x1
    8d77:	01 00 00 00 
    8d7b:	e9 d2 00 00 00       	jmp    0x8e52
    8d80:	49 be d2 19 56 55 55 	movabs r14,0x5555555619d2
    8d87:	55 00 00 
    8d8a:	48 c7 85 70 ff ff ff 	mov    QWORD PTR [rbp-0x90],0x1
    8d91:	01 00 00 00 
    8d95:	e9 b8 00 00 00       	jmp    0x8e52
    8d9a:	49 be 50 7c e5 f7 ff 	movabs r14,0x7ffff7e57c50
    8da1:	7f 00 00 
    8da4:	48 c7 85 70 ff ff ff 	mov    QWORD PTR [rbp-0x90],0x1
    8dab:	01 00 00 00 
    8daf:	e9 9e 00 00 00       	jmp    0x8e52
    8db4:	49 be d9 f2 55 55 55 	movabs r14,0x55555555f2d9
    8dbb:	55 00 00 
    8dbe:	48 c7 85 70 ff ff ff 	mov    QWORD PTR [rbp-0x90],0x1
    8dc5:	01 00 00 00 
    8dc9:	e9 84 00 00 00       	jmp    0x8e52
    8dce:	49 be 60 3e e5 f7 ff 	movabs r14,0x7ffff7e53e60
    8dd5:	7f 00 00 
    8dd8:	48 c7 85 70 ff ff ff 	mov    QWORD PTR [rbp-0x90],0x1
    8ddf:	01 00 00 00 
    8de3:	eb 6d                	jmp    0x8e52
    8de5:	49 be e0 1f e5 f7 ff 	movabs r14,0x7ffff7e51fe0
    8dec:	7f 00 00 
    8def:	48 c7 85 70 ff ff ff 	mov    QWORD PTR [rbp-0x90],0x1
    8df6:	01 00 00 00 
    8dfa:	eb 56                	jmp    0x8e52
    8dfc:	49 be 62 81 55 55 55 	movabs r14,0x555555558162
    8e03:	55 00 00 
    8e06:	48 c7 85 70 ff ff ff 	mov    QWORD PTR [rbp-0x90],0x1
    8e0d:	01 00 00 00 
    8e11:	eb 3f                	jmp    0x8e52
    8e13:	49 be f0 65 55 55 55 	movabs r14,0x5555555565f0
    8e1a:	55 00 00 
    8e1d:	48 c7 85 70 ff ff ff 	mov    QWORD PTR [rbp-0x90],0x1
    8e24:	01 00 00 00 
    8e28:	eb 28                	jmp    0x8e52
    8e2a:	48 c7 85 70 ff ff ff 	mov    QWORD PTR [rbp-0x90],0x0
    8e31:	00 00 00 00 
    8e35:	eb 1b                	jmp    0x8e52
    8e37:	4c 89 bd 70 ff ff ff 	mov    QWORD PTR [rbp-0x90],r15
    8e3e:	eb 12                	jmp    0x8e52
    8e40:	eb 10                	jmp    0x8e52
    8e42:	9d                   	popf   
    8e43:	eb 0d                	jmp    0x8e52
    8e45:	48 c7 85 70 ff ff ff 	mov    QWORD PTR [rbp-0x90],0x4
    8e4c:	04 00 00 00 
    8e50:	eb 00                	jmp    0x8e52
    8e52:	4c 89 b5 78 ff ff ff 	mov    QWORD PTR [rbp-0x88],r14
    8e59:	4c 89 6d b8          	mov    QWORD PTR [rbp-0x48],r13
    8e5d:	4c 89 65 c0          	mov    QWORD PTR [rbp-0x40],r12
    8e61:	4c 8b 75 d0          	mov    r14,QWORD PTR [rbp-0x30]
    8e65:	4c 8b 7d c8          	mov    r15,QWORD PTR [rbp-0x38]
    8e69:	41 8f 47 08          	pop    QWORD PTR [r15+0x8]
    8e6d:	41 8f 07             	pop    QWORD PTR [r15]
    8e70:	41 8f 86 80 00 00 00 	pop    QWORD PTR [r14+0x80]
    8e77:	48 83 c4 10          	add    rsp,0x10
    8e7b:	41 8f 46 30          	pop    QWORD PTR [r14+0x30]
    8e7f:	41 8f 46 18          	pop    QWORD PTR [r14+0x18]
    8e83:	41 8f 46 10          	pop    QWORD PTR [r14+0x10]
    8e87:	41 8f 46 08          	pop    QWORD PTR [r14+0x8]
    8e8b:	41 8f 06             	pop    QWORD PTR [r14]
    8e8e:	41 8f 86 98 00 00 00 	pop    QWORD PTR [r14+0x98]
    8e95:	41 8f 46 20          	pop    QWORD PTR [r14+0x20]
    8e99:	49 89 5e 28          	mov    QWORD PTR [r14+0x28],rbx
    8e9d:	4d 89 56 38          	mov    QWORD PTR [r14+0x38],r10
    8ea1:	4d 89 4e 40          	mov    QWORD PTR [r14+0x40],r9
    8ea5:	4d 89 46 48          	mov    QWORD PTR [r14+0x48],r8
    8ea9:	49 89 46 50          	mov    QWORD PTR [r14+0x50],rax
    8ead:	49 89 4e 58          	mov    QWORD PTR [r14+0x58],rcx
    8eb1:	49 89 56 60          	mov    QWORD PTR [r14+0x60],rdx
    8eb5:	49 89 76 68          	mov    QWORD PTR [r14+0x68],rsi
    8eb9:	49 89 7e 70          	mov    QWORD PTR [r14+0x70],rdi
    8ebd:	48 83 c4 10          	add    rsp,0x10
    8ec1:	41 5f                	pop    r15
    8ec3:	41 5e                	pop    r14
    8ec5:	41 5d                	pop    r13
    8ec7:	41 5c                	pop    r12
    8ec9:	5b                   	pop    rbx
    8eca:	5d                   	pop    rbp
    8ecb:	c3                   	ret    
